(dp0
I0
(lp1
S'5'
p2
a(lp3
(lp4
F0.0678824488655601
aF0.2511833414195922
aF-0.09217737224317546
aF-0.2751068859239837
aF-0.010114640629676774
aF0.0013951029766501727
aF0.07038188460043798
aF-0.08822484063033997
aF0.000309318493983711
aF-0.05321176444057718
aF-0.1645246165177539
aF0.13334672535873113
aF-0.023097052642180982
aF-0.04816528135451417
aF0.06622891269197356
aF0.010465327542740738
aF0.11947704963624874
aF-0.07973824924164666
aF0.18795652825951642
aF0.11760818545542186
aF0.20736034351429825
aF0.05017618367348274
aF-0.0002508106019788593
aF-0.08651482808781184
aF0.0776324669757353
aF-0.12355066549720119
aF0.08014391092206714
aF-0.07259042910577511
aF-0.003309412047252664
aF0.02173921441956566
aF-0.19947682747557535
aF0.09541862437566437
aF-0.037640889670631866
aF-0.06094799685420648
aF-0.26659866842450824
aF-0.2686144314001699
aF0.0048306775159715955
aF-0.01952922368131848
aF-0.0537764482696165
aF-0.022696017399391897
aF-0.052827127473649385
aF-0.09779143734223487
aF0.046562649576773946
aF-0.18674069454356598
aF-0.08631638096566566
aF-0.07776817812373085
aF-0.1290152857564974
aF0.12943986251283673
aF-0.05439925631552307
aF-0.0715478299255155
aF0.03218446150340106
aF0.37574717915138045
aF0.09072548419801119
aF-0.12494986895680545
aF0.15295209594774867
aF-0.3049091889243106
aF0.05523349378901447
aF0.047018140308586406
aF0.10936553940881162
aF0.15898202932370523
aF0.13519348931526587
aF0.09157295646416737
aF-0.1281717792832327
aF0.05581975243961061
aF-0.1781304060613795
aF-0.10199261654179415
aF0.005045545202983356
aF0.030584939513472513
aF0.09295409213649805
aF0.09960897460131354
aF-0.04960782876152393
aF0.1300680010367643
aF-0.09566733689848327
aF0.0983287992013152
aF-0.09075431575962548
aF0.10283457119937302
aF-0.097671355853224
aF0.0786067048145116
aF0.0902807814901367
aF-0.15758229528477694
aF0.1379722768384034
aF0.13269715633921006
aF0.0403760834667921
aF-0.016952381247220066
aF-0.16191528728856425
aF0.04242793908273579
aF-0.035149643753379915
aF0.0713135385757078
aF0.06718600979127001
aF0.20068573549794985
aF0.04507680209324396
aF0.08129541973089285
aF-0.00764688362586084
aF0.0005376440728961935
aF0.21102040778298814
aF0.0490203545023255
aF-0.13129441575455236
aF-0.14145322253796647
aF0.2270894129680595
aF-0.03895496893881829
aa(lp5
F0.024269686174906723
aF0.09391751022386115
aF0.06369241813088211
aF-0.2484282236030917
aF-0.02895179204846593
aF-0.042894625348911544
aF-0.13582720343248125
aF0.026387859210420216
aF0.23800925358734756
aF0.14195208499167428
aF-0.04286530113190892
aF0.10571349612259207
aF-0.10172208358465998
aF-0.1392418704730834
aF0.08803658069566697
aF0.11393980601532516
aF0.23953689032097195
aF-0.05235302087686519
aF0.14844962062060352
aF0.07010505159132197
aF0.25161558209196316
aF-0.038487324578572936
aF0.04580015716362443
aF-0.00011911162609908629
aF0.026740486355322748
aF-0.07735579803288427
aF0.14596071939327682
aF-0.07940994421894672
aF-0.02881223990360791
aF-0.12079538286149154
aF-0.22979072692262262
aF0.14552545518050133
aF0.015089615189971543
aF0.08371725328579581
aF-0.2585646802740112
aF-0.0984340829943544
aF0.01897957462112376
aF0.12403067725367597
aF0.06314727016625878
aF0.04019058487068146
aF-0.12841644264602453
aF0.06776741200124538
aF-0.008074960227151094
aF0.025886011740482034
aF-0.0975566374180812
aF0.012324310139710033
aF-0.1570093990899545
aF0.09498233537945383
aF-0.08154842672957865
aF-0.15587524904219996
aF-0.08974226024121902
aF0.08010453206615326
aF0.09534132932880889
aF-0.06709443509820125
aF0.009292387411605941
aF-0.06492599047889104
aF-0.005784312115371155
aF0.08258585724196274
aF0.0016426746147143825
aF0.14237784731748956
aF0.2011513904699335
aF0.09498011401539924
aF-0.017737204943351254
aF0.12772957961098924
aF-0.1699192229691512
aF-0.0004889311158909825
aF-0.07033255031873607
aF0.02852498998827674
aF0.02592287719671625
aF0.12600822637578848
aF-0.04949731194449587
aF-0.05223078302046025
aF0.026432370896680105
aF0.07809153607964207
aF-0.11274860334743551
aF0.1110891124255718
aF-0.015537199607712143
aF0.0816900421520679
aF-0.0405930455085403
aF0.05421455749144705
aF0.2622085908541151
aF-0.11003086768451123
aF-0.0228572729794608
aF-0.12274174711430753
aF0.058527437065349464
aF-0.06527611464186131
aF0.020877788832578584
aF0.05016442006172104
aF0.016490896358977266
aF0.11965718639545422
aF-0.10813402539731055
aF0.04139187436683588
aF0.11630287001954241
aF0.007462024377545683
aF0.21385087219727958
aF-0.08477251199118115
aF-0.1751581725884927
aF-0.08410488828117826
aF0.15691857382593458
aF0.013375546126693495
aa(lp6
F0.025150921577905723
aF0.11203635299277775
aF-0.09426864936531654
aF-0.15597171261725518
aF-0.08151301045331849
aF-0.0050062506601085965
aF-0.16103561571711633
aF-0.0192609600050902
aF0.09063533678188401
aF0.03996216566410078
aF-0.18938636895861594
aF0.04338460416500084
aF-0.02102855815269214
aF-0.08704494515824424
aF0.024807815165061527
aF0.1449650825235881
aF0.09676752520110794
aF-0.04179932409475033
aF0.19521905329594857
aF0.16240158768386004
aF0.11229302561962444
aF-0.01453436809669247
aF0.058967711782759
aF-0.047939582420217626
aF0.04334250317711664
aF-0.17051688074083537
aF0.07645348011418536
aF-0.14468481112164902
aF0.013916974407051131
aF0.012805967247737046
aF-0.13295854395586923
aF0.0111022780512651
aF0.01886149457736638
aF-0.07060695163015485
aF-0.14074604880108907
aF-0.31228134269329316
aF-0.15540222733217451
aF0.050764632554459545
aF0.0342863229516362
aF0.03963835550214052
aF0.011706210420444698
aF-0.14917606178752202
aF-0.08912891643396512
aF-0.039411839853967165
aF0.04219596231689236
aF-0.0425023102269219
aF-0.11802778185470646
aF0.02700132212723084
aF-0.13173514978586978
aF-0.0905275383794088
aF-0.05266884647428711
aF0.14185030992540304
aF0.040575293170479095
aF-0.06147699300235419
aF0.08541939970512252
aF-0.19374929747708414
aF-0.05627327315005472
aF0.057587447674209376
aF0.12924093181682358
aF0.1027575203632895
aF0.14714639430895912
aF-0.14109396990000253
aF-0.08847703534477619
aF-0.030301750978480663
aF-0.023994552038192
aF-0.11659252806730326
aF0.0950514244245031
aF0.039057745192927
aF-0.07329686133936392
aF0.08841942118104605
aF0.04417416177247078
aF-0.0737218873910025
aF-0.13342023709832138
aF0.020770647356476792
aF-0.06033546750296607
aF-0.048512289107002754
aF-0.030974167978921812
aF0.12086679518712169
aF0.13434684880620115
aF-0.16310892959380113
aF0.23097310936112841
aF0.03135617727744014
aF0.08830734061636354
aF-0.06365308031166345
aF0.03747354933854362
aF0.12349343921312853
aF-0.03863271466474852
aF0.07943155079032171
aF-0.09672698752716499
aF0.21766021516742345
aF0.12058881152791988
aF0.0786304753886299
aF-0.09409000475570203
aF-0.048754987131075025
aF0.12304175238177742
aF0.12463906418960526
aF-0.1983622130727531
aF-0.09511482251832333
aF0.08241108038072974
aF0.033718103448883804
aa(lp7
F0.03916916895725484
aF0.12770232529203207
aF-0.07479081485846853
aF-0.25447153130627376
aF0.036887083873113014
aF0.020354018518191498
aF0.021500594565543242
aF-0.03306270619214299
aF-0.016257243799868787
aF-0.03513006588232443
aF-0.08578357111005552
aF0.19579368887995602
aF-0.012540521836186536
aF-0.10294263453055241
aF0.042962561555169546
aF0.03100520401905975
aF0.018489596620376345
aF-0.1335406168619913
aF0.1137418770044589
aF0.08303158979261265
aF0.21675470674583813
aF0.013308953873125836
aF0.011047308965167797
aF-0.09760316371085316
aF0.07083060076682651
aF-0.041119189318399765
aF0.14708998899161815
aF-0.06759219530471214
aF0.016517120691459844
aF0.1301914667818293
aF-0.18440066385723422
aF-0.029922055273165524
aF-0.04100399318300254
aF-0.08151906214773803
aF-0.19664440440214204
aF-0.07999097717572319
aF0.0044096002456270305
aF0.02863787479948346
aF0.01558373210951556
aF0.049701927114179444
aF-0.06724266258028667
aF-0.11201244060667723
aF-0.02288520374842316
aF-0.018406365672928488
aF0.030550827982849332
aF-0.00377224679777882
aF-0.14895883557268844
aF0.10357949225773833
aF-0.22939213546781287
aF0.04220644247822663
aF0.09288151791768266
aF0.26905950552119295
aF0.09733907344955667
aF-0.14253935038438106
aF0.0886327163613138
aF-0.19791343867645267
aF0.13372359537912296
aF0.10675005637313739
aF0.028230571572010643
aF0.1579011242317332
aF0.04259229326729316
aF0.08895809462510534
aF0.00645643547718897
aF0.10380684635147093
aF-0.15263816106191153
aF-0.09909147843769221
aF0.050827057413413576
aF0.009895103360133686
aF0.12392176460109255
aF0.07269300852145125
aF-0.028049291760243733
aF0.15507311305805288
aF-0.07283127656698796
aF0.1418515935440709
aF-0.03188001821733663
aF0.11846454865149308
aF0.0663894522173949
aF0.05028722891068981
aF0.1515195478160416
aF-0.09037652386537463
aF0.15084664519973592
aF-0.02148851714856262
aF0.008078244033613659
aF0.04189171349733053
aF-0.12989111596866412
aF-0.04666904537032343
aF-0.08388320941914493
aF0.04763643465590218
aF0.06216175545137571
aF0.12310339405410796
aF0.14185547676241336
aF0.06827752228724619
aF0.07215094788444346
aF-0.17843553202553403
aF0.19184696983084604
aF-0.03868270232785822
aF-0.09410257812607235
aF-0.09572943434907406
aF0.0771961369441443
aF-0.05615658111589369
aa(lp8
F0.04928917690979479
aF0.14440314617086203
aF-0.06717016081584426
aF-0.13786165425648894
aF-0.0289778018525
aF-0.028917136884959255
aF0.04638970708873484
aF-0.07832696115041173
aF0.08294146576271563
aF-0.04834337535791036
aF-0.15041811964107216
aF0.2394839101007039
aF-0.05608349603763134
aF-0.10432783662475592
aF0.026098995475512067
aF-0.06250447925040481
aF0.08363424853318788
aF-0.031994426602875534
aF0.18166301548569472
aF0.14426885146776128
aF0.12224389042481648
aF0.06919681799174147
aF0.024525027007587272
aF-0.12934022802782558
aF-0.04531197162485082
aF-0.041515413695252634
aF0.07072113455096367
aF-0.10424087126276807
aF-0.023071786121436982
aF0.07456559608927826
aF-0.23745038823107367
aF0.1055442981179037
aF0.02009104535694882
aF-0.15657533073521226
aF-0.1944442190907319
aF-0.27999723046333863
aF-0.013233277373489404
aF0.03906849999063676
aF-0.01052115573590506
aF0.06644497355454033
aF-0.1775680112978743
aF-0.12253166502667429
aF-0.020850833157650284
aF-0.06697778636047313
aF0.0012493229327884864
aF0.013075194126358814
aF-0.1240623508230629
aF0.03131222340883874
aF-0.16088555105838673
aF0.02765705837726905
aF0.0655571598938069
aF0.3424712929171457
aF0.07217954485399296
aF-0.1834983863975145
aF0.015712426099077373
aF-0.21281207730264118
aF0.07592285133218069
aF0.04505741474949799
aF0.11935070110494643
aF0.0441478980556306
aF0.12048467220858529
aF0.09086020689582983
aF-0.12402096841506235
aF0.11032482948637498
aF0.004832554485305595
aF-0.13310680683129433
aF0.12499398293643371
aF-0.04248691093549127
aF0.06436150145695184
aF0.14664330340817835
aF-0.07612859088185919
aF0.03954343758276398
aF-0.14206950473697924
aF0.16147027589850466
aF-0.07346152889121764
aF-0.01398992344241377
aF0.06383759314305501
aF0.04820710666258371
aF0.11078369611145344
aF-0.19280809439128285
aF0.09182127845680829
aF0.14224739300887992
aF-0.027550762883760217
aF-0.060471114442149164
aF-0.08214248596072744
aF0.03608526036112879
aF-0.0371095437426421
aF0.03220010259544843
aF0.047409668240104105
aF0.16378242215315558
aF0.21028066129667417
aF0.06710759060386923
aF0.0633151515989675
aF-0.1739166641060347
aF0.12496206883387961
aF0.023064289147457194
aF-0.14884732832955191
aF-0.02973599533638837
aF0.13089942588403633
aF-0.13975980277122438
aaasI1
(lp9
g2
a(lp10
(lp11
F0.1055458610126354
aF0.1548332133513396
aF0.10196367063958973
aF-0.2566123720784197
aF0.03584338511606899
aF-0.02912893917600105
aF-0.1639335318032752
aF-0.02679870892400575
aF0.2869077451206385
aF0.0908309212016149
aF-0.01047958026277973
aF0.07164025980190548
aF0.017097235963171142
aF-0.13777917539737317
aF0.10329953979620038
aF0.09948833915087606
aF0.19234936734305624
aF-0.11817575702203881
aF0.052285620034922264
aF0.12614667749497635
aF0.2590992569582224
aF-0.07862657263101666
aF0.1191208320545826
aF-0.020523088065334035
aF-0.004084027046188175
aF-0.11742584029691674
aF0.15128357886959234
aF-0.17133082380895467
aF-0.01837301150598367
aF-0.037511634721796736
aF-0.27677021184345474
aF0.0860382148100874
aF0.046814968504381195
aF0.11643003539729556
aF-0.3838030301785584
aF-0.04020747195653808
aF-0.010078566575087926
aF0.22646151354120306
aF0.01997924793576274
aF0.008313794377511364
aF-0.031905454222205955
aF0.10122344899435012
aF-0.03929210233019406
aF0.07826541631389794
aF-0.024986585497701184
aF-0.008880063634802813
aF-0.13788419398798393
aF0.15874404263018377
aF-0.0766096940511993
aF-0.1396939283475176
aF-0.1758386283785504
aF-0.006047882143359094
aF0.01856222346124222
aF-0.01708561775943893
aF0.03379532254490716
aF-0.24016862254060842
aF0.01655196185346214
aF0.0301049410598736
aF-0.15645137960002978
aF0.17408095239128726
aF0.10270899600287275
aF0.07506854716582771
aF-0.09432634813962812
aF0.13504037285823534
aF-0.31608880822461405
aF0.02281277092910378
aF0.0013224971607951471
aF0.009397857021668614
aF0.07533125713743415
aF0.14288895737844967
aF-0.20631537345000123
aF-0.043671726997017345
aF-0.006044734759561198
aF0.0771423770719171
aF-0.14155514164382915
aF0.2586158435564513
aF-0.17074672593750437
aF-0.04241364824249913
aF-0.009969801605268273
aF0.0772160799753674
aF0.22350805626343798
aF-0.09671344057925736
aF0.026826814422262084
aF-0.1957245104476918
aF-0.016374364030011784
aF0.06663659983683501
aF-0.010724988940920721
aF0.18588652758665758
aF-0.03265095431374572
aF0.03403216237186886
aF-0.0358211081166317
aF-0.0641305694280898
aF0.14003484224086998
aF0.03866338118119812
aF0.2612677032789897
aF-0.1932613607420633
aF-0.21193618149852883
aF-0.08690312982790889
aF0.17128415271718062
aF-0.058966274984535494
aa(lp12
F0.036525912144228845
aF0.06217309870626876
aF-0.1313817805098385
aF-0.1744932338088343
aF-0.0022604509053489874
aF0.04123694006891182
aF-0.01668123529109472
aF0.03209433219793162
aF0.06656742945968463
aF-0.036660181462349506
aF0.016781230334936115
aF-0.09385783176297968
aF0.09888707074739188
aF0.0073129769343774735
aF0.14786720607183287
aF0.0825696720788932
aF0.11762865504225321
aF0.04647955846852767
aF0.0450965041550719
aF0.09644691533289193
aF0.17831160499192722
aF-0.09750121881828192
aF0.007174089460334219
aF0.0012555029620946023
aF0.03908870104791827
aF-0.1558960167340456
aF0.03406293578294194
aF-0.15786076948347813
aF0.02803658938460976
aF-0.043630253914598696
aF-0.08408867142739455
aF0.11266170835122918
aF-0.04001890635662883
aF-0.11728608036294264
aF-0.1313022429593472
aF-0.002963008220743259
aF0.020300789316232675
aF-0.0008151988651992428
aF0.05048368504494127
aF0.0720559294315546
aF0.028052965858763233
aF-0.1597069072420729
aF-0.006847365035655098
aF-0.06644764206404678
aF-0.02584873952391719
aF-0.08952571430004744
aF-0.11917047081091992
aF0.08594281211527739
aF-0.16548513309017918
aF-0.14312539215834655
aF-0.04588802545754375
aF0.10474145319319057
aF0.07974240915441094
aF-0.03816042220228179
aF0.09626103044093978
aF-0.09627442392422139
aF-0.004361911057550388
aF0.09743537111302608
aF0.031624877646683563
aF0.14762583595895085
aF0.16719873948598862
aF0.021779600429074265
aF-0.08198128354257674
aF-0.011645861164094775
aF-0.004440290383387072
aF0.008613108827647525
aF-0.0640954615015574
aF0.0775376746657949
aF0.02125373636785085
aF0.0060377914127838096
aF-0.013791301943273243
aF0.019553956381834547
aF0.06585146670733913
aF0.007084631556823219
aF-0.05424193699345464
aF0.08319536402464311
aF-0.13347851568389643
aF0.01961522392797241
aF-0.03726222357249433
aF-0.10507773870985834
aF0.04590573038494225
aF-0.016647998334266202
aF-0.08210064586119786
aF0.033042428899227635
aF-0.07576564317339418
aF0.008084547145685642
aF0.052804610362625425
aF-0.011754354748025931
aF-0.04331376481613592
aF0.022596601735478134
aF-0.04464155825725069
aF0.07506696108034447
aF-0.025763337806242976
aF-0.1176007620286242
aF0.015635199406943374
aF-0.006380070190429363
aF0.0005169080029127257
aF-0.039029099021887524
aF0.18170967854890094
aF-0.05359422454679808
aa(lp13
F-0.033930852080220335
aF-0.029528142135636593
aF0.04024386954164045
aF-0.13649304478043822
aF0.010162304625849272
aF0.07889782323619443
aF-0.052129698482766294
aF0.03184677899600364
aF0.1085806653693782
aF0.026629520668227383
aF-0.11660937291358378
aF0.028360458439999122
aF0.030019950314401887
aF-0.01730639857398728
aF0.07649985387124543
aF0.15903946730517185
aF0.1152131837310846
aF0.0571789701528801
aF-0.04036880477994802
aF0.10248700473848445
aF0.17264514816463897
aF-0.0863249380031809
aF0.029398668659077466
aF-0.015505292933842115
aF-0.008602155342813094
aF-0.11943585271399605
aF-0.02695098951917106
aF-0.12280309814011835
aF-0.053718121752945804
aF-0.08206762787565047
aF-0.06958461558234923
aF0.07751623844126189
aF0.05019355652731282
aF-0.05442319889278206
aF-0.10893442276454611
aF-0.06616269862100563
aF-0.019623667215912858
aF0.01120631243793799
aF0.0878608721304535
aF0.044081812929077376
aF-0.026577771226491863
aF-0.09111313355011881
aF0.13652188567823673
aF0.010169744750887591
aF-0.004951509991786551
aF-0.02910539142736692
aF-0.03445323616039312
aF0.03230752760760206
aF-0.08332838304044703
aF-0.0969113486102567
aF-0.06901700309261775
aF0.035983181650545704
aF0.029947528734252594
aF-0.0965431783306142
aF0.04159588969576389
aF-0.12621522154298503
aF-0.01916504433461761
aF-0.01035282564563067
aF0.022728706546166627
aF0.06494486354611215
aF0.10744367816170353
aF0.013243614824650345
aF-0.023194121005883427
aF0.0084661255978784
aF0.017984811641115053
aF0.024854521640936395
aF-0.06606989987682026
aF0.029256213057814687
aF-0.014054905399354306
aF-0.0022326877312949358
aF-0.045819290093778324
aF-0.021046922410787563
aF0.004816849564087669
aF-0.020667126979427193
aF-0.03428683252537837
aF0.08071676964276216
aF-0.03006627121841888
aF0.02889261330995391
aF0.0143534408345403
aF-0.06893963468119757
aF0.04041101056985338
aF0.04151558756925493
aF-0.004868833935617868
aF-0.03589440415508135
aF-0.06917926406226148
aF0.07366171110343851
aF0.03532587529784741
aF0.027610471472148644
aF-0.09197242535210767
aF0.09648647526707854
aF0.01433695290074126
aF0.020285766775118983
aF-0.03788833014430269
aF-0.056934639516476857
aF-0.03189217012701469
aF-0.005327636153530706
aF-0.036718671431504785
aF-0.030328616442497576
aF0.1282976354879092
aF-0.06597463840386338
aa(lp14
F-0.002405824791016584
aF0.013401633570751616
aF0.0019265420241085796
aF-0.1657265413585608
aF0.028755276718932077
aF0.04952221946044272
aF-0.03202701910310035
aF-0.009764563063385051
aF0.0706654427183326
aF-0.06717376036684157
aF-0.023990077949733447
aF-0.00989321328769951
aF0.041980281191738904
aF-0.03995877169507236
aF0.10327712840851828
aF0.0956418742705915
aF0.07750261861101342
aF0.08681126578906409
aF-0.048161925359573775
aF0.14949913210584137
aF0.15285546398486977
aF-0.06256630428005461
aF-0.00683737476146706
aF0.012884622677587006
aF0.016519464832117067
aF-0.14909450850385
aF-0.05416276757105133
aF-0.15670196053922075
aF-0.021775494350303494
aF-0.05367292621877843
aF-0.0787282925773336
aF0.10947471663171418
aF0.008662643424275121
aF-0.05163671157222992
aF-0.10639728563694487
aF-0.026264671265253635
aF0.026294399210760915
aF-0.029799242161866243
aF0.07282795166597676
aF0.05175982300609449
aF0.03140678529233037
aF-0.09740868087681233
aF0.026145720028046986
aF-0.046636980903551145
aF-0.005862838922686632
aF-0.05951275305922182
aF-0.028815734247154202
aF0.0673494579506667
aF-0.09658010853734074
aF-0.09970092264010218
aF-0.0912666425265686
aF0.10663847404953761
aF0.08151706933780187
aF-0.05710127500941787
aF0.06160738581402505
aF-0.10933342815794361
aF-0.0232960888080108
aF0.0349305288070415
aF0.029729490829544552
aF0.05063245595358105
aF0.12863004198116754
aF-0.005615825665092501
aF-0.04986498410157567
aF-0.027464765698597727
aF-0.023759494605350172
aF-0.001422412636691396
aF-0.04664912249803752
aF0.042462256947460905
aF-0.012824499656466773
aF0.011026820426978398
aF-0.09278017162722077
aF-0.014361626417846034
aF0.023682154223726562
aF-0.05309552775998259
aF-0.06062318736394657
aF0.10710429641769471
aF-0.03455938594196518
aF-0.01323066227102983
aF0.0001876848572542342
aF-0.07862082291986566
aF-0.011494228697712185
aF0.07354086770518231
aF-0.014181009588840705
aF0.019001228602363026
aF-0.050664044348481034
aF0.06648636110056508
aF0.032887693173744376
aF0.06613866294603914
aF-0.09534490279400858
aF0.04791256621852403
aF0.013175621829333137
aF0.05478765648206169
aF-0.08611413996308488
aF-0.07862988021537334
aF0.004984033649172418
aF0.004457119420741935
aF-0.02012510200133177
aF0.01787088272287759
aF0.1354764414140381
aF-0.0950352147186061
aa(lp15
F0.07478660398462184
aF0.14738989578646905
aF0.0724181498333582
aF-0.12511327280269002
aF-0.013480120235059234
aF0.02495804849521537
aF-0.1339384632573759
aF0.009726598478714533
aF0.11128177663292882
aF0.00011595160903130064
aF-0.03131283553924635
aF0.0886457892365364
aF-0.004613102684382253
aF0.02087263238551156
aF0.052719731353431276
aF0.07313687776698523
aF0.0886033024871946
aF-0.12257742615090961
aF0.036502949629732225
aF0.18117519869402482
aF0.1916478455000583
aF-0.05521271695884542
aF0.11222940921906814
aF0.038114560155423895
aF-0.03691398213693845
aF-0.11476229105867082
aF0.025680836055648155
aF-0.07148712399500684
aF0.07292969971687291
aF-0.008624054017319303
aF-0.2468541617987151
aF0.2111700592279508
aF-0.015935778128442192
aF-0.030230728585128087
aF-0.19684664298938911
aF-0.12526887197784792
aF-0.09700232123616964
aF0.11481931137559845
aF0.07479340755474967
aF0.05319216150657063
aF0.001844979169780806
aF0.0031339122819308432
aF-0.04282330509492038
aF0.01683484504003948
aF0.010168903887152221
aF0.10100495603328755
aF-0.07545604139567537
aF0.11435235163728917
aF-0.01848315214126606
aF-0.07687837068204408
aF-0.058781236274725056
aF0.006926449104384499
aF-0.005659154533730626
aF0.03440270899362924
aF0.06967200692812271
aF-0.13292293361947577
aF0.05047525473831928
aF0.04743637579030331
aF-0.008175376763153882
aF0.12024730782650242
aF0.10378106981930212
aF0.04168095197579713
aF-0.057750894048710345
aF0.07402134049465217
aF-0.1148735955821473
aF0.014788001738479824
aF0.007480479238650006
aF-0.007978183683549581
aF0.1101985341616647
aF0.13029628243712418
aF-0.10571529797478313
aF0.013537628096856744
aF-0.04885953637106088
aF0.019507922708901778
aF-0.11693951383585506
aF0.11911347778674819
aF-0.19146173624252863
aF-0.01142227557655658
aF-0.0113927545157286
aF0.012362730575790432
aF0.005630602127905198
aF0.00982951209064454
aF0.0017522509363952525
aF-0.10765259677513049
aF0.03458094186591168
aF0.021254467295970976
aF-0.0503001252672908
aF0.022882914145608776
aF-0.04914260826538186
aF0.04921245194347255
aF-0.014876355219449376
aF-0.08873109809462455
aF0.016616902291337866
aF-0.007804028780143847
aF0.09718216371051443
aF-0.049102275420438164
aF-0.07044032697050179
aF-0.06129248623608431
aF0.17086306776704582
aF-0.060364935583150446
aaasI2
(lp16
g2
a(lp17
(lp18
F-0.015765110345650993
aF0.08141930043788592
aF-0.049217930033555526
aF-0.01762857050322747
aF-0.03438603187669215
aF-0.013024889411396845
aF0.011941068478948715
aF-0.01283621158715137
aF0.0494923047693122
aF0.008260142815208376
aF-0.03232516776250133
aF0.014588552468307812
aF-0.12014485624114613
aF-0.019526156769203228
aF0.03317249976492637
aF0.0002627071287545419
aF0.05258881027701467
aF0.034396559651832886
aF0.05870632260369977
aF0.04685921928851561
aF0.08448907813929081
aF0.007889795025061697
aF0.02790483663372075
aF-0.08095350049959879
aF-0.015155214223162381
aF-0.08539149257043584
aF-0.007542710985519935
aF-0.014757527411708727
aF-0.01254335084914283
aF-0.04833185899525122
aF-0.0635746290127649
aF0.08616421344917544
aF-0.009239836283162906
aF0.011028030424678042
aF-0.07519540667827322
aF-0.1661736861623486
aF-0.038580806772327725
aF0.019877649923676775
aF0.03730808886668595
aF0.010221639723696661
aF-0.019311370829573796
aF-0.058572938368547926
aF0.01244758704908119
aF-0.010103873964842615
aF-0.057442993095091335
aF-0.01765506809636452
aF-0.0530010506105333
aF-0.05494226073862219
aF-0.02058557052600988
aF-0.025625643959571502
aF-0.017420090845115532
aF0.04856667056588235
aF0.03691911521979729
aF-0.051080959808738925
aF-0.01682603939952001
aF-0.07678743237610057
aF0.0019139570114502676
aF0.06177790240309711
aF0.012374688560710195
aF0.0011620092987255348
aF0.04613231939512814
aF0.0257636842449673
aF-0.019415717509093114
aF-0.025280521274970002
aF0.004938270951956931
aF-0.024944819204460452
aF0.03065293456097329
aF0.05182618596641784
aF-0.0397537169247603
aF0.074221083166482
aF0.03553139415666179
aF-0.052021131797246836
aF-0.0510838577658386
aF-0.015367867460593817
aF-0.001837436197627906
aF-0.046762027621332386
aF-0.05460689360650783
aF0.018945235277208355
aF-0.01447746833565421
aF-0.03980302754870364
aF0.01491430151108997
aF0.08234590817405597
aF0.023503662529718198
aF-0.06032706143639266
aF0.002189913026138253
aF0.015941186389791015
aF0.018358865068775952
aF-0.020508710666230726
aF-0.001176391328020256
aF0.09228644641330049
aF0.05083436021901859
aF0.015571224578018088
aF-0.07358970550581709
aF0.0031965008305909473
aF0.014075468010031632
aF0.05659268820560236
aF-0.088144191983437
aF0.013564720512964154
aF0.04803458448966641
aF-0.036957245406286664
aa(lp19
F0.017856921358185382
aF0.009824406921700168
aF-0.061113707552047924
aF-0.08656255940491035
aF0.024014509915897375
aF-0.0855329634224843
aF-0.05620142821418997
aF-0.05311997158136744
aF0.0004205277650935202
aF-0.07502368566539022
aF0.007028331016724898
aF0.03978850365933739
aF0.05789863519924686
aF-0.03929115277254955
aF0.11988671062686636
aF0.06235449266271592
aF-0.035488095375342865
aF-0.06134218425005362
aF0.0015172224356496265
aF0.03925100092487232
aF0.05608922365896787
aF0.06242517603845649
aF0.11005398803244737
aF-0.019082537962481532
aF-0.06495173758374483
aF-0.02619759570996508
aF-0.07827398170601238
aF0.021826039207673852
aF0.13144673046727431
aF0.03020990796999038
aF-0.1346358578483164
aF-0.027331534776597964
aF-0.007785045101047668
aF-0.046205713505915326
aF-0.2764811548196152
aF-0.026106578849482285
aF-0.16223480495077763
aF-0.1154898505557461
aF-0.046667385406868996
aF0.05425579444940318
aF-0.23270752387575774
aF-0.18692259855401563
aF0.05709603517449726
aF-0.1414705472869681
aF-0.06122297248180729
aF-0.04292728384880325
aF-0.055402010336296534
aF-0.03760000457671797
aF-0.15264227657668478
aF-0.1394385497036343
aF-0.14667752260836137
aF0.06337724885519079
aF0.17142524306032364
aF0.07621559994409419
aF-0.022132766991234617
aF-0.08153651143394425
aF0.0075584289445755504
aF0.09847130199236305
aF-0.1373755899892975
aF-0.14197672011413304
aF0.16966175671405134
aF0.12435718159470385
aF-0.06140472608158042
aF0.006733318778677945
aF-0.061473155763214216
aF-0.020818851198956136
aF0.044665769828815045
aF0.12309970805717252
aF-0.15089835297933435
aF0.23460351333964477
aF-0.04270375428503813
aF-0.05914834441414082
aF-0.08142756423282038
aF0.02015903649925479
aF-0.13865669223930904
aF-0.029043117116491924
aF-0.07099663541930258
aF0.026162288806240254
aF0.1782787441807064
aF0.018239144606624482
aF-0.03346407930649851
aF0.11774986792082275
aF0.11191562480238461
aF0.036855948517219
aF0.07825996110044509
aF-0.06628891303555508
aF-0.12101474666220399
aF0.009654880056344345
aF-0.024586338644313328
aF-0.02653510435303391
aF-0.05721223798076828
aF0.1770621087772308
aF-0.10063426138111116
aF0.052119964578530104
aF0.14189830496159533
aF-0.07231477429573903
aF-0.15201276624485613
aF-0.10928188699805104
aF0.03916243813007656
aF0.03683912925256236
aa(lp20
F0.03231954388120532
aF0.10356486917466678
aF-0.07331471137552699
aF-0.036992775934124755
aF0.06088094273043593
aF-0.00019377952833408985
aF0.005486027899914991
aF-0.024509000413119486
aF0.04652967498517173
aF0.049447388981341656
aF-0.022931400984443493
aF0.0429910902194544
aF-0.13179245935498643
aF-0.017682440801493757
aF0.02173902681588776
aF-0.020521385939186412
aF0.0005556047012359273
aF0.01152953598044172
aF0.016045736182189393
aF0.00047206853635262396
aF0.11800154893799068
aF-0.016184459824730813
aF0.0031891103538951374
aF0.03170717029745557
aF-0.1331763952177098
aF-0.035491209905400556
aF0.024478351206048684
aF-0.04682403062149446
aF0.026860870558331345
aF-0.04032717883764034
aF-0.0854868420257905
aF0.04678237801596812
aF-0.0760893178874685
aF-0.01143512363933348
aF-0.12208498570652337
aF-0.08352621817730246
aF0.012431918083686313
aF0.08448406681525847
aF0.0721300906236096
aF0.021360929009875025
aF-0.12722248998254423
aF1.0962247060969923e-05
aF-0.07678382189234251
aF0.02434709863196349
aF-0.045445900822462124
aF-0.0049833299416181314
aF-0.09256542319223066
aF0.011527817930515369
aF-0.017024569271335648
aF-0.025741162726171447
aF-0.06954422784963456
aF0.05812927114220383
aF-0.05293613304285486
aF0.040191212531614666
aF-0.05445437959176985
aF-0.14997831365132652
aF-0.05318898950673753
aF0.062296813060379756
aF0.08587589144471022
aF0.021978587192403053
aF0.04399665859593226
aF0.02011424238557218
aF-0.07688029337224776
aF-0.09613422854767469
aF0.009845012734756055
aF-0.05862738128383141
aF0.10546744650649467
aF0.06329252280950565
aF-0.001547361632865415
aF0.05290914708310235
aF-0.012403703995634365
aF-0.03790285114661281
aF-0.05663491614780626
aF-0.00034289989127231384
aF-0.04599520578058448
aF0.013399234077523471
aF-0.02935630506236394
aF-0.0058004671660584275
aF-0.0022638084842856163
aF-0.09438470261576569
aF-0.024384638682062844
aF0.08739909237127354
aF0.06577761242405153
aF-0.03062094021362281
aF0.04820274506518548
aF-0.06026856273800768
aF-0.06401749197517574
aF0.02762933061650306
aF-0.04698909336957219
aF0.04473575983564352
aF0.06452849167385487
aF-0.04256983986928583
aF-0.027010087094707667
aF-0.012569619015646218
aF0.04436681572877182
aF-0.007382448484771983
aF-0.09603834453017109
aF-0.08592866583666897
aF0.06056634612220958
aF-0.07440345385578052
aa(lp21
F-0.00814457274708995
aF0.09086373959157058
aF-0.14646563521062467
aF-0.019936296430690115
aF0.004704357278412008
aF-0.004230435094696894
aF0.0243205849475151
aF0.009578829505825948
aF0.10165768807674412
aF0.028854671907171166
aF-0.05935551094146602
aF0.05317312170650169
aF-0.15944850124167045
aF-0.07990014636094851
aF0.05884562521881775
aF0.023045584894216004
aF0.00022151934204417715
aF-0.035458583493807976
aF-0.025948453391812055
aF-0.05328408680711107
aF0.12754222584998048
aF0.017446813717102685
aF0.016529391958643423
aF-0.05342425753908001
aF-0.03308208102444524
aF-0.11102702491642948
aF0.06075427315162593
aF-0.021806116172289957
aF-0.0039973799191046835
aF-0.004297775922579849
aF-0.14677663526208024
aF0.05246319286256991
aF-0.08699975131824358
aF-0.025422208916414658
aF-0.18587365597246805
aF-0.12252706481212057
aF0.013901117857308692
aF0.11842019204640651
aF0.06427153753289958
aF-0.03235003828754229
aF-0.10364640680552925
aF-0.029910498055355124
aF0.0014677574711751391
aF0.026977033186780332
aF-0.012994330300158048
aF-0.014226185904172345
aF-0.12626297491412591
aF-0.011757981903269644
aF-0.022983480608721095
aF-0.06845744042213127
aF-0.046898630221075883
aF-0.0014099386809786924
aF-0.05759832365527992
aF-0.011982207758087404
aF-0.042785017179213666
aF-0.1608847335042222
aF-0.028220974039731877
aF0.09384125103803133
aF0.056267866935263554
aF0.10290701517599639
aF0.1479730738696522
aF0.08676868684721045
aF-0.06963753203965861
aF-0.07458558659875439
aF-0.012569646181994258
aF-0.08147066818828816
aF0.08393054603941026
aF0.15403663826148925
aF-0.010445687407883911
aF0.077636092787094
aF-0.05606237657085608
aF-0.05372350322741705
aF-0.032381596270612434
aF0.0050248542655838176
aF0.013988032158032062
aF0.0018349493219179263
aF-0.02890847926878214
aF-0.09796615510384987
aF0.006535518491959526
aF-0.09711769266504494
aF0.06786934483166775
aF0.0981538048228907
aF0.04779426283473897
aF-0.07210991956333102
aF0.030876744304092804
aF-0.03825096862397442
aF-0.004742491545886631
aF-0.041092902476916056
aF-0.02212569353085396
aF0.07671751933035643
aF0.11200851403837846
aF0.024196110062936427
aF-0.03700744938125812
aF-0.062279981808688115
aF-0.023082079507831924
aF-0.0031685051211259203
aF-0.10579855378756747
aF-0.08674855195776082
aF0.12812618372463427
aF-0.07342797389143677
aa(lp22
F0.07268920157554425
aF-0.005845175422114407
aF-0.16972036026893517
aF-0.006264420495521783
aF0.11869445558627334
aF-0.055233814992878716
aF-0.011901637336153653
aF0.05393300871811574
aF0.06034132204968086
aF0.04850966840331439
aF-0.10537629909770493
aF0.0807521575301124
aF-0.12841553544931672
aF-0.0810971216026598
aF0.10218122926889836
aF-0.02188595649185701
aF-0.005130010391452222
aF-0.05806778085785222
aF-0.03194209947138099
aF0.03185795741092533
aF0.1841781611079823
aF0.07541424495504508
aF-0.01961337546414448
aF-0.03389329935345533
aF-0.10334395561944207
aF-0.07940376282185245
aF0.03684420938596773
aF-0.03252605701594675
aF0.002430287368270572
aF-0.0601720350933159
aF-0.1799589831661594
aF-0.02168159249347022
aF-0.04329478106658044
aF-0.05349864759794525
aF-0.15270718958842286
aF-0.1271970782851884
aF-0.02648442701257747
aF0.128043820041117
aF0.02670902820210699
aF0.03698146100319789
aF-0.08441917332156587
aF0.014059786773397871
aF-0.010532240008908341
aF0.009926949534808577
aF-0.030346101485011878
aF-0.05013288592597277
aF-0.05995343937301451
aF-0.04881144356194839
aF-0.09762065718443526
aF-0.06561454016351631
aF-0.017306289719497384
aF0.0064679248648955604
aF0.0019862631726182845
aF0.03996992951389634
aF-0.07418170412199361
aF-0.17663112045260487
aF-0.05492692041880209
aF0.07174472207152383
aF-0.011172260687069446
aF0.13918561751656602
aF0.1392296252197739
aF0.024428355097852975
aF-0.10160936403334321
aF-0.09241413869718496
aF-0.004515456806064221
aF-0.02607736633386449
aF0.0728626445497234
aF0.14878473187965152
aF-0.10369309426221521
aF0.0977701465870665
aF-0.15077912005847577
aF-0.108762011765212
aF0.06029627271612362
aF-0.07204997312943931
aF-0.05661908045921485
aF0.08445347446605352
aF0.00474664896192603
aF-0.06112198474910631
aF0.034608818362505796
aF-0.13386089397426557
aF0.07688997562271985
aF0.06588199285299508
aF0.0740877961534257
aF-0.07800961123014277
aF0.009398226827541191
aF-0.02673070915076306
aF-0.08814804591868827
aF0.04521840986138662
aF-0.018969246304848645
aF0.020796570954722624
aF0.06153955538012536
aF0.0651690973824412
aF-0.09134650231708702
aF-0.14391190505776283
aF-0.01198393925206468
aF-0.052748190974525634
aF-0.053148907738162145
aF-0.09851065847581049
aF0.12498982949923494
aF-0.07727792744079474
aaasI3
(lp23
S'4'
p24
a(lp25
(lp26
F0.05125780647967821
aF-0.05700284772133564
aF-0.10231272068539765
aF0.028789803586935614
aF0.07858160500544127
aF-0.04845489555481364
aF0.07556178320362691
aF0.007921580447295268
aF0.11228073839744641
aF-0.08932524481137341
aF0.01130194744665727
aF0.09972646169963123
aF-0.04268942537056646
aF-0.06905910491495525
aF0.08482751213873493
aF-0.04242895084517574
aF-0.06876404176134374
aF0.007582892315855561
aF0.08773652838445371
aF0.03700246793639023
aF-0.012546418550069001
aF-0.005936339639140363
aF-0.03270971324784301
aF0.0919602693381727
aF0.0644852884613052
aF-0.09157844583049428
aF0.0665785921475507
aF0.0917173661362434
aF-0.009571075151557761
aF-0.02267304389141527
aF-0.11698634832285494
aF-0.07075269283459043
aF0.023367343217232408
aF-0.008080562737112287
aF-0.11332916360587071
aF-0.09050918463553742
aF-0.01503008737275565
aF0.10565619087641374
aF-0.00016139814138145162
aF0.08266599664474535
aF-0.014348546375127209
aF0.06627795615974494
aF-0.10273376919319321
aF-0.0039005186403010313
aF-0.05159138619226231
aF-0.08991774734574072
aF0.02526701253464327
aF0.054974623309175207
aF-0.03625034199967933
aF-0.07739261275048513
aF0.05472751174198039
aF0.0743397958057718
aF0.07673834137763956
aF0.04906748939256165
aF-0.10846187071661184
aF-0.0010513873635706785
aF-0.03152978887765065
aF0.10425429370887826
aF0.05577889755272561
aF0.129803144082155
aF0.05917066722250998
aF-0.1352002449855878
aF-0.12677968236757756
aF-0.20287289233552705
aF-0.11569232524179959
aF0.038313289329437755
aF-0.037147759074541487
aF0.02355608277270335
aF-0.0302760668131458
aF0.07601288933248268
aF0.005111335941116682
aF-0.1245812810428703
aF0.08708327052803702
aF0.019548061616372417
aF0.0753028730945429
aF0.08166038715428378
aF0.11921184299716259
aF-0.01047429967874297
aF0.006610560093074792
aF-0.06813327105468256
aF0.04949002553045999
aF-0.017469946826838025
aF0.20821062148738376
aF-0.04257370354758824
aF0.02711140481653713
aF0.07567708794941372
aF-0.052436072594210785
aF0.17883662266081815
aF-0.052291944602362035
aF-0.101921950391115
aF-0.02572390398271823
aF0.09252954660158888
aF-0.09047642189553835
aF-0.08099847469829138
aF-0.006539114529975002
aF-0.0160183294716613
aF0.01032894173612026
aF-0.012974140650601517
aF0.0960956404045343
aF-0.06867283806358424
aa(lp27
F0.020133623758725527
aF0.051126877217582134
aF-0.05312125328953787
aF-0.07474372710072161
aF-0.16314851303394112
aF-0.09008179715744533
aF-0.015029504384925028
aF0.007403319874143541
aF0.021949906349290713
aF-0.08596037384678898
aF0.030364171869787578
aF0.0055697458074844474
aF-0.11590090746330632
aF0.04824811843780484
aF0.18100917913137865
aF0.01887308240426315
aF-0.09662652048596308
aF-0.05760686900237798
aF0.04728822274277437
aF0.1505747375048269
aF-0.03558759715888983
aF-0.06596719490497223
aF-0.012901690719732545
aF0.01597858492616641
aF-0.010637554207651856
aF-0.06684901790103147
aF0.07877776407549665
aF0.05677376732270066
aF-0.01923615334073859
aF-0.06670249342501545
aF-0.055489176625720595
aF-0.008946708169495669
aF-0.05723933018253271
aF0.02519640805399432
aF-0.11356542790152173
aF-0.019031130373279716
aF-0.06651243804153151
aF0.035197610059994056
aF-0.08583352322520725
aF0.04094439441305177
aF0.09892346444114962
aF-0.06506960948070108
aF-0.0315183679355228
aF-0.04453423007656418
aF-0.05464042893689178
aF-0.04807621781952849
aF0.020212232594943418
aF0.10101389549049312
aF-0.04540230072999815
aF-0.0866040831052253
aF-0.04102571973790532
aF0.07827305690541535
aF0.07297404604038081
aF-0.037654593246930546
aF-0.06495453235833701
aF-0.05291101346593042
aF-0.05573144644703906
aF0.07520501787825001
aF-0.09322357833763013
aF-0.0573596649664764
aF0.04662498237729806
aF-0.134771677774865
aF-0.1027239224873642
aF-0.10582604191858766
aF-0.034880846316975085
aF-0.027083673689032643
aF0.002669616308164966
aF-0.08273377632266346
aF-0.017276495080550604
aF0.0055247456615731775
aF0.00011770892778348161
aF0.033713009712213415
aF-0.001807436541745417
aF0.021063702393753343
aF0.011331791765326596
aF0.16595497998651693
aF0.051317732380164766
aF0.031839415694369703
aF-0.006565486587141172
aF-0.09396159535287148
aF-0.037430555192973385
aF0.12545838810055573
aF0.06083896433647024
aF0.06985999743710182
aF-0.06230585821424049
aF-0.0504300988864722
aF-0.019797872363399527
aF0.05668112064561067
aF0.04952934969810847
aF-0.003205810076204458
aF0.019624585686879636
aF0.015374544262708924
aF0.0012570447348595722
aF-0.09783920571275204
aF-0.06998919393201362
aF0.0012497350355482448
aF-0.010798907394386681
aF0.0035969839381205055
aF0.14461957353176194
aF-0.012723183219318717
aa(lp28
F-0.03264003979301989
aF-0.06206631579032347
aF-0.10492473966405427
aF-0.010531130756536
aF0.06724378596389421
aF-0.030657983211700768
aF0.058771904192789645
aF0.0036247047162198424
aF0.111658206202213
aF-0.06078553077791588
aF-0.021111319343074857
aF0.04254630891626708
aF-0.05876470648280505
aF-0.02028248481631615
aF0.07900240578219972
aF-0.024486959382490472
aF-0.08476561084221493
aF-0.03196686497559768
aF0.07776828419975623
aF0.037703967964647554
aF-0.01383099125997065
aF0.04474545331737112
aF-0.056939588934167853
aF0.05355952830956877
aF-0.013135784120665487
aF-0.08227373782363848
aF0.045842007700145425
aF0.08826431147762168
aF0.021728524173386214
aF-0.06307335453917982
aF-0.10691188820234251
aF-0.05025033488558742
aF-0.01728997907348053
aF0.010180722417884654
aF-0.0988901155944077
aF-0.06172306490031838
aF-0.004764933447923316
aF0.08197491061179685
aF-0.0036881470267934612
aF0.056356796104242525
aF0.02752844224947311
aF0.08544719034986512
aF-0.028569635738266787
aF-0.02479769387936235
aF-0.051266108058659436
aF-0.10021142733396042
aF-0.03966542748983842
aF-0.014004563251500667
aF-0.04097733895973081
aF-0.013153821671638423
aF0.045363747209672435
aF0.045153538736021515
aF0.08952897047431523
aF-0.00031060757472244093
aF-0.07945739649795579
aF-0.015538070544525943
aF-0.0322282975856873
aF0.06794648838088323
aF0.0029306333285889496
aF0.04438720927595152
aF0.051162691779468396
aF-0.13682574415306212
aF-0.0937349388102668
aF-0.13991028147537657
aF-0.06997821209492694
aF0.048890867001725485
aF0.033176467171115
aF0.03324034909870313
aF-0.05507347109834159
aF0.03897609267286064
aF-0.017571173774453545
aF-0.06044858161052086
aF0.12080774886681346
aF-0.007026391193418422
aF0.01789461723547853
aF0.06286252700341617
aF0.05584709695204801
aF-0.03723118793591811
aF-0.0036982617956193287
aF-0.1432858831324029
aF0.02838201742422482
aF0.04677755637834502
aF0.16641394195716866
aF0.0379038693281344
aF-0.03381482934016038
aF0.050149912134339975
aF0.024418744454047684
aF0.14548245093875195
aF-0.05234258863650918
aF-0.04972290647136984
aF-0.00636043807999807
aF0.06233353564718675
aF-0.09131976577979146
aF-0.080134402024358
aF-0.03885501055262269
aF-0.0014115699731146103
aF0.004452390737646689
aF-0.04849708371468542
aF0.07798392320448251
aF-0.10496253777801119
aa(lp29
F0.028492312031595607
aF0.07613924321881377
aF-0.06302503208112087
aF-0.06540657956887713
aF-0.10195508077800354
aF-0.08995433876908784
aF0.024842608983517832
aF-0.013225465449375653
aF0.08563227933515961
aF-0.031410557807706435
aF0.006894334526291907
aF0.08729535512368286
aF-0.09956889922243178
aF0.11482276698053932
aF0.1554012832949559
aF0.07827596269109915
aF-0.09075114930485405
aF0.024791310446845877
aF0.007490374908739203
aF0.10950150151311916
aF0.014064261536669545
aF-0.06030097542910226
aF0.014236812377756309
aF0.030592039983187123
aF0.017162987031148096
aF-0.07749577354882825
aF0.028760382655820736
aF0.05263995010229987
aF-0.059830135705112364
aF-0.08524340913443597
aF-0.10130330805849815
aF-0.010713278769431752
aF-0.05313956835935726
aF0.0027374631105632303
aF-0.09251777163529913
aF-0.03015308303920629
aF0.0256072866924917
aF0.12176206720914892
aF-0.06443096862432836
aF0.0038779464258428247
aF0.13138394895361988
aF-0.04146284469298982
aF-0.039605731597059365
aF-0.01567547732476198
aF-0.09379266265581881
aF-0.11362200573256415
aF0.02658679366174104
aF0.06870722435616303
aF-0.08254666041953758
aF-0.07436898194714818
aF-0.07700701827707519
aF0.05158283262047837
aF0.08188657153033654
aF-0.038983133095537775
aF0.003843707125878333
aF0.007048854826391223
aF-0.027651361848970477
aF0.06880777169376734
aF-0.08698827738136299
aF-0.04912903666492193
aF0.04687778935155902
aF-0.110136781513318
aF-0.037877772578101175
aF-0.15833003951131597
aF-0.09016257346065353
aF-0.00023794133133465462
aF-0.030577101274332715
aF-0.027492405493178464
aF-0.01963643338371514
aF0.04382314210971917
aF-0.0012903081747393885
aF0.03588355480345824
aF0.01564714585836819
aF0.066726624528984
aF0.04472351171247768
aF0.08829703126756171
aF0.05313211244675573
aF0.025095535791864597
aF-0.0925339331275605
aF-0.19289244559108942
aF-0.01576879182102313
aF0.09728161464188326
aF0.11951484632119881
aF-0.05034860517772011
aF-0.031590745807947365
aF0.03578081348382968
aF-0.06449647663800412
aF-0.00822177569247159
aF-0.02058860901850707
aF0.037502698820317655
aF0.0514291801962279
aF0.03941048923099881
aF-0.020573035841158452
aF-0.09439841736150638
aF-0.010368372938385932
aF0.032738185240478127
aF-0.04651107103581505
aF-0.0035036395447879446
aF0.0885438983499703
aF0.05561903245117752
aaasI4
(lp30
g24
a(lp31
(lp32
F0.07743698206153869
aF0.21076704564209936
aF0.0007677018996273821
aF-0.20635947028416507
aF-0.13138311199669211
aF0.022911278002372137
aF0.06194935216465203
aF-0.05707531647050196
aF0.15550542543106066
aF0.04507006186972287
aF-0.033262838535299266
aF0.2981457320257191
aF-0.06721835325246028
aF-0.2580576410898504
aF0.09789451572650093
aF0.12448678253497278
aF0.09940816759600779
aF0.11995635014669082
aF0.07534717203868593
aF0.19476186632461057
aF0.2525488203441025
aF-0.05336159617470507
aF-0.02955706723003789
aF0.020624024057302456
aF0.03588439117901923
aF-0.1584867932314836
aF0.2831040068450144
aF-0.15661239201878166
aF-0.07203945251344429
aF0.014271668135651366
aF-0.30541972330991246
aF-0.11243909426222985
aF-0.044786074871050276
aF0.0023039635625686852
aF-0.289443722448038
aF-0.18920990856717643
aF0.010688884636348971
aF0.07252149874873877
aF-0.06676987198145956
aF0.009927553026145414
aF0.00020128150850367004
aF0.022964624651740335
aF0.13410461457683134
aF0.03346361877022642
aF0.024564712231843183
aF-0.13538148419225376
aF0.047466801775236496
aF0.04332217939581116
aF-0.06647712603216069
aF-0.179957423822202
aF-0.05157863712071997
aF0.08186413777685035
aF-0.011414234354124283
aF0.03340384395925177
aF0.10788980814852388
aF-0.03676743575954666
aF-0.007686963016077977
aF0.15378255284349238
aF0.12347350464070542
aF0.08722596498941966
aF0.1628768304040202
aF-0.2315861230018097
aF-0.06760989969252308
aF-0.13251342201719882
aF-0.21919312705329178
aF-0.016450226411676063
aF-0.035973137866925055
aF-0.10065214033313014
aF0.22734533682043315
aF0.08237156270115033
aF-0.053164651998853084
aF-0.015515734688574347
aF-0.08351172460325777
aF0.07507708915486627
aF-0.0016260787864658104
aF0.26034409027898314
aF-0.06963980391147102
aF-0.04664880073833514
aF-0.013685328890559621
aF-0.06501582397455322
aF0.19799505014206004
aF0.06226816021813413
aF-0.04671437177126674
aF-0.057814368506554116
aF0.017335542780202308
aF0.04785105605637732
aF0.020922626489614383
aF0.07396416442672171
aF-0.06577249871096509
aF0.03722048047979563
aF0.06102152856479936
aF0.15024407883833193
aF0.09749201674908103
aF-0.18205838802324226
aF0.08396840150641138
aF0.09173785430420632
aF-0.041399072952634966
aF-0.03344298880103578
aF0.15006830374004082
aF-0.09632974443450325
aa(lp33
F0.14090522668866964
aF0.22314002846068615
aF0.12132229285383841
aF-0.3151438216606235
aF-0.007733961195145855
aF0.06431175880823586
aF-0.03584443356822431
aF-0.09401444011963889
aF-0.09286707831791274
aF0.053341994365975476
aF-0.10086916484854391
aF0.1971296836326124
aF0.19335187671625367
aF-0.15286130152984384
aF0.025350788633688448
aF0.063236166878189
aF0.1584998149727209
aF0.05168648720506578
aF0.07553001967035651
aF0.105333365754727
aF0.2469297848139182
aF0.152890544347714
aF0.01510713926730711
aF-0.04619504568042764
aF0.10954183907112311
aF-0.33618249401802747
aF0.2047814458929975
aF0.16494316195029785
aF-0.26046948243703744
aF0.03941232714809405
aF-0.12087346278422822
aF-0.13141495930652844
aF-0.0697494508992294
aF0.032261716792857435
aF-0.16346609680656096
aF0.031284559164211134
aF0.10679486861316367
aF-0.10219602017185543
aF0.13723889071985118
aF-0.12192958333497976
aF0.18844892584743003
aF-0.13838663466394643
aF0.14208562612894096
aF-0.17930129258944028
aF0.06917275158991947
aF-0.18256861714252098
aF0.1095136342970754
aF-0.03659622210883951
aF-0.05939262852571535
aF0.07149982911676453
aF0.09162110779525315
aF-0.04241210904950612
aF-0.34858826449015234
aF-0.08708055606870227
aF-0.04541816234546533
aF-0.06429017575471867
aF0.030480595420177795
aF0.06539062882416402
aF0.022539947022296298
aF0.04329640200326642
aF0.15910370361759993
aF-0.19951308291355443
aF-0.05580562173011518
aF-0.24803624631178783
aF-0.2805993531877886
aF-0.2589456180140205
aF0.1035305794183637
aF-0.05668434543573459
aF0.2849348563908116
aF0.13568601773536867
aF-0.15152038865468884
aF0.05185990724532006
aF-0.15016911380472406
aF0.08788709390902956
aF0.012264548078863296
aF0.3172299978246348
aF-0.0017606903591389246
aF0.1744113728062322
aF-0.05614562093303911
aF-0.09144911777089633
aF0.2094897033833766
aF0.23444728672084264
aF0.1136128113712699
aF0.11074461278258438
aF0.14188536198693563
aF-0.12594965969568098
aF-0.11488464415304635
aF0.08141243507034975
aF0.10127895911795964
aF-0.020230138096995226
aF0.006691615555399689
aF0.12808360996109594
aF-0.05241264229985941
aF-0.14201190574252215
aF0.16586675677890175
aF-0.0007186089770778022
aF0.04740629087355936
aF-0.11130852138366994
aF0.22788801014003615
aF-0.03642148127385601
aa(lp34
F0.15818171278403184
aF0.06657295217307613
aF-0.03817259347449159
aF-0.14792192348481825
aF-0.06938597377801523
aF-0.0058361633457636175
aF0.08754818546195542
aF-0.10504559589673645
aF0.11790476609024417
aF0.06510664973247775
aF-0.06954096136945453
aF0.008482968989116227
aF-0.1784892484956291
aF-0.1809346287180527
aF-0.04867854283268794
aF0.11976462440707708
aF0.059058205268735044
aF0.21866548279716708
aF-0.09266886793714263
aF0.04223249502307443
aF0.07933113644233439
aF0.048616813833079704
aF-0.024346023687837177
aF-0.09617620157088833
aF-0.0032207408125453393
aF0.08004621380652371
aF0.2292520474059403
aF0.0023872041732242435
aF-0.012679840833716443
aF0.06441415133125256
aF-0.04493083119284839
aF0.08806713391592086
aF-0.10880661753072617
aF0.002895198722825433
aF-0.13175154712534903
aF0.015772773701495643
aF0.030874843489438194
aF0.1476904648244707
aF0.1279705491832347
aF-0.0962676620643127
aF-0.042152036515360244
aF0.10462518504603378
aF0.06494487526563705
aF0.016352161243639824
aF-0.05892622456853709
aF-0.0593226119416251
aF0.1355060182261249
aF0.016253428093256368
aF0.0014150721927460963
aF-0.05247853210737595
aF-0.05427067220593962
aF0.12677244102371538
aF-0.07291734498520824
aF0.11447930722429103
aF-0.05655412036886762
aF0.030761180437392493
aF-0.06898314117993326
aF0.11052543882893612
aF-0.07984708746399592
aF0.10401540203838475
aF0.009964975743961534
aF-0.015035651314552985
aF0.11875233265650523
aF-0.054972473269989594
aF-0.1955761693810418
aF-0.06338069981883518
aF-0.00728920547722896
aF-0.04486015876886963
aF0.18963227426613025
aF0.06467001531114114
aF-0.031231545211798092
aF0.07386792893727681
aF0.029037784159155432
aF0.15768547292920496
aF-0.030655477454065355
aF0.20472859883203676
aF0.0972051262297893
aF0.03134492133677728
aF0.013150364317012274
aF-0.08201665053186206
aF0.05649179973264921
aF-0.09263195628937897
aF0.11278210753365756
aF-0.05909565085452389
aF-0.01271109310577671
aF-0.06185191435079677
aF-0.02152447657586463
aF0.03053954118440449
aF0.040564991484805184
aF-0.07142270960281691
aF0.06461979691671707
aF-0.031115658341343867
aF0.07068884242003266
aF-0.013998159399076856
aF-0.03821898095807088
aF-0.08519574344790487
aF0.016444401072346973
aF-0.12478288457793128
aF0.11035736841394755
aF0.03485167241833495
aa(lp35
F0.18687178993242937
aF0.1262116446773346
aF0.1483109703881456
aF-0.2240973327973187
aF-0.0034209653851410837
aF0.010426288081457069
aF-0.07934512583641956
aF0.008394492053743652
aF-0.17691446865309185
aF0.013039071530634258
aF-0.03335880131752028
aF0.12201928525957018
aF0.1008193370569625
aF-0.1620995917390339
aF-0.06475790789815224
aF0.0618901104722149
aF0.15993714339994633
aF-0.05050854099146406
aF0.09485489239774582
aF0.09951757345585319
aF0.2368339073195652
aF0.14289311884377148
aF0.026330418972717467
aF-0.07632695538035715
aF0.09170530859763329
aF-0.24341578128089048
aF0.13654195459182022
aF0.13916733307182017
aF-0.19800392812816758
aF0.060890096015474966
aF-0.10675935504806866
aF-0.07437425471213928
aF-0.004448618478271477
aF-0.008110821859981346
aF-0.1844939384692642
aF0.10003406520730018
aF0.05209231346954605
aF-0.010749623130091356
aF0.1422534837890692
aF-0.13440528130240084
aF0.03664794362674591
aF-0.05168383850959959
aF0.06275447895799525
aF-0.1878275923838025
aF0.0818991388241045
aF-0.09225766953218648
aF0.11287603145496197
aF-0.001746845161781899
aF0.04034466078647785
aF0.029083247666976557
aF0.05152048125702966
aF0.01917809854564579
aF-0.31534751131840577
aF-0.055672219587920395
aF-0.08985458875263072
aF-0.12193739622184653
aF-0.030197850670481
aF0.029888950318115122
aF0.06702784287655589
aF0.10213066723783465
aF0.13640436243823964
aF-0.11900575455538197
aF0.005057703006639358
aF-0.1344260050198265
aF-0.2085937731826044
aF-0.22344296703581903
aF0.04461489387221909
aF0.07724224552998363
aF0.19482058837649746
aF0.0980092379326104
aF-0.0875550841583547
aF0.051599763946501814
aF-0.1315928153705941
aF0.12494351713747216
aF0.011139871174133224
aF0.20290311905889497
aF0.06475643877049872
aF0.15491948230298558
aF-0.033654161654588295
aF-0.041611958982297886
aF0.19962129611624588
aF0.19975062190588766
aF0.16957948840823814
aF0.000506311484936773
aF0.1648003194732468
aF-0.12311825351456293
aF-0.1113865122730311
aF0.11227293167013955
aF0.07446855250959813
aF-0.04677314021513061
aF0.041115559135985996
aF0.08584610041219772
aF0.025124418389081023
aF-0.04587913269985017
aF0.1571671723133273
aF-0.045753485352587386
aF0.002873870066494948
aF-0.12919094345859033
aF0.21940044420564495
aF-0.05154134462757014
aaasI5
(lp36
g24
a(lp37
(lp38
F0.07208091249276492
aF0.10926335954704988
aF-0.14549816194504117
aF-0.10015992893989309
aF-0.18646521596992932
aF-0.07488201326293359
aF-0.13966293176781852
aF0.09576333055760058
aF0.12925244167462013
aF0.06428764525829295
aF-0.12989260289862178
aF0.0414028015595268
aF0.024354799024254123
aF0.004914301219686865
aF0.07025064300678452
aF0.042075384564547284
aF-0.015130561122472127
aF-0.03752633618320158
aF-0.06573053533260836
aF0.16313381740356464
aF0.16761551296441254
aF-0.04263654387801599
aF0.02093200644793442
aF-0.04311842799828962
aF-0.022791098272258496
aF-0.048366036639561426
aF0.1843607501230044
aF-0.07310372663843787
aF-0.14881718557573775
aF-0.047953325374999994
aF-0.10577970226008503
aF0.08129366785697946
aF0.08353103189437501
aF0.026848029389397243
aF-0.054942898518932394
aF-0.09588755684447095
aF-0.03992746819828771
aF0.15058694406876788
aF0.06313440102799575
aF-0.058481913602754454
aF-0.12622759681463444
aF-0.05730723317610332
aF0.14578376121274764
aF-0.07532364509538834
aF-0.07517064499018147
aF-0.058948322495929975
aF-0.03050726128443195
aF0.04113022690381393
aF-0.13542232833699624
aF-0.24773380142487123
aF-0.050856510193426935
aF-0.052310557515918725
aF0.05492804430761694
aF-0.04749983721254284
aF-0.14901771789907275
aF-0.11604320719369388
aF-0.01991522322759808
aF0.01374980358866471
aF0.12004698089142411
aF0.020225479598194644
aF0.13079801875274022
aF0.0782795409648528
aF-0.14022950472561801
aF0.16768397630592313
aF0.021171965349147483
aF-0.1257292086195775
aF0.03575229060918475
aF0.0528280911511746
aF-0.004406444573812358
aF0.16383871492870222
aF0.02623862162584029
aF-0.048628863611171774
aF-0.026015785449515143
aF0.03751017190765168
aF-0.01330843550594522
aF0.0997353986069154
aF0.08528147877184776
aF0.07879851094444855
aF-0.06486245669182754
aF0.00683988912054394
aF0.07497690091915163
aF-0.005926301538554342
aF0.10736722058794336
aF0.06555789912607485
aF-0.06295890492356411
aF0.043302212722932415
aF-0.10652423461409893
aF-0.06935729989949527
aF-0.02207208111054167
aF0.07493409857602285
aF0.0035118615496704483
aF0.15333384266747177
aF-0.04792606189259151
aF-0.05209572182929428
aF-0.06002034923039665
aF-0.02816505238778283
aF-0.02362007808283122
aF-0.007375233213965215
aF0.06018718592580821
aF-0.03324876300069412
aa(lp39
F-0.0057477420841507065
aF0.06893508216320816
aF-0.028583614817701664
aF-0.17422579888769923
aF-0.11549847002595248
aF0.014141880978918553
aF-0.06507454111669375
aF0.03423798440953252
aF0.12575637672331264
aF0.05976982511807497
aF-0.050347401566548364
aF0.11688803118204892
aF-0.0618373306538737
aF-0.03792950573585112
aF0.02066685930869631
aF0.04992202130199481
aF0.042406407165981666
aF-0.06799471719304442
aF0.039938581401326535
aF0.19537696625674594
aF0.18493961322639876
aF0.019304930718892915
aF-0.05397351167702892
aF0.010554847290139795
aF-0.0728197957511957
aF0.03530981190308692
aF0.06489704541533253
aF-0.0834983306895955
aF0.03170848582733432
aF0.02477478977838399
aF-0.0825228644000597
aF0.09444633122860767
aF0.0722943388440718
aF0.019314186105702767
aF-0.09602681978056211
aF-0.032951903326791064
aF-0.07165935165966744
aF0.10719534541037086
aF0.06259456897481933
aF0.0033451388019737735
aF-0.05790838722843818
aF0.0001104161428806416
aF0.020901129893441877
aF-0.0003339328959383007
aF-0.1167466833533797
aF-6.849351491956739e-05
aF0.006715117447792507
aF0.07057512950352134
aF-0.20342736006409373
aF-0.11676391163563309
aF-0.010349017074205543
aF0.08590990487462576
aF0.004251791178897801
aF-0.07141423105162158
aF-0.017887587332842552
aF-0.06064168054040968
aF-0.00783779602169731
aF-0.04504478258472351
aF0.11793624077416633
aF0.10106649908950266
aF0.10922987863765246
aF0.10378720530554875
aF0.07960100301362139
aF-0.03584190389071101
aF-0.10329630825090315
aF-0.10104502655696611
aF0.11667717722059477
aF0.028626958264585733
aF-0.0466387141262048
aF0.20603173603095684
aF-0.050677312140665745
aF-0.10074798396634067
aF-0.0031633127247028344
aF-0.04249494409197916
aF-0.1174839077580167
aF0.037863637718285166
aF0.17587821177510535
aF0.07867447372210429
aF0.08430888870016139
aF0.004527174845605811
aF0.04378622208667666
aF0.07432976025642118
aF-0.07010392181438097
aF-0.0031722075216777824
aF0.06811873063495247
aF0.10310537048246457
aF-0.05628788592988836
aF0.027753017155968576
aF-0.1001851409027603
aF0.04748738903130153
aF-0.02707951473204228
aF0.09295157467400834
aF0.0419583944500013
aF-0.059749041355083
aF0.09241104165776509
aF0.0008287928362959583
aF-0.05214092266920303
aF0.019942550257932318
aF0.20452761017948606
aF0.012889497333542221
aa(lp40
F0.04980552071083748
aF0.1559689857447401
aF0.04586436355554546
aF-0.196116963555514
aF0.09230053596604598
aF-0.03436305551623342
aF-0.05299310721731833
aF-0.049921713973796356
aF0.09110721368334466
aF0.0323693581824368
aF-0.02100499216855467
aF0.21377589260334037
aF-0.02419709788520663
aF-0.06050400486471352
aF0.00017955514969298508
aF-0.031040673363820763
aF0.04407089488758467
aF-0.15326404879586006
aF0.09651076122529476
aF0.08107474531221229
aF0.23078898391456307
aF0.006820073432468388
aF0.015621471356949166
aF-0.007560961121942956
aF0.016429746043591254
aF-0.014433752611608824
aF0.09435544184648655
aF-0.12347667552383645
aF-0.04783253789741482
aF-0.009790917034784984
aF-0.2217314913481245
aF0.06919157806728202
aF0.04406129786918515
aF0.08166538297451409
aF-0.1758304126038452
aF-0.11163173447170972
aF-0.009457695841367677
aF0.10481506204305843
aF-0.011993655320009726
aF-0.007229629241124956
aF-0.06855663626624264
aF0.05329048684789548
aF-0.0491981260220393
aF0.0010237394255134514
aF-0.10282078883002102
aF-0.04514774048799412
aF0.013183273590228476
aF0.1250815027972302
aF-0.060151564890425224
aF-0.00768374024962338
aF-0.11617301325144817
aF0.1125974650676796
aF0.11612716175518983
aF0.01141744765323199
aF0.0930159339204965
aF-0.18914664459926642
aF0.0865687205188071
aF0.030786431453716144
aF0.061120282917487764
aF0.10265142920491531
aF0.11944156533338177
aF0.048446283993398634
aF-0.07586901476111223
aF0.11590374973803226
aF-0.15177361367043113
aF0.004173807209084024
aF0.018893808044918452
aF0.043936681665475145
aF0.0749271181699421
aF0.12748519711229736
aF-0.10151036341485639
aF-0.020173617911134884
aF-0.0006309819300168424
aF0.11241562376636928
aF-0.024782316525386174
aF0.029017707597489607
aF-0.10051551522238979
aF-0.029390436238242515
aF-0.006971977827926967
aF-0.08180817361031349
aF0.13222262117954783
aF0.07948419883454148
aF0.10492065918036404
aF-0.13005051248767602
aF-0.0253677680627805
aF-0.011946401470794775
aF0.02660470367362246
aF0.09232696660821776
aF-0.06465313689964243
aF0.10123034126750524
aF0.05011915588704663
aF0.08007738237354228
aF-0.07340221264990181
aF-0.1251058025202601
aF0.11013184647221985
aF0.07316039299140426
aF-0.14125575269900167
aF0.03581149368924854
aF0.11542263421509066
aF-0.007091579923857409
aa(lp41
F0.21894123867963694
aF0.03353970637987613
aF-0.01589747272195771
aF-0.30566669423443077
aF0.11152060614644743
aF-0.06373132690184646
aF-0.2442177892413302
aF0.09855426715847859
aF0.21744070490822703
aF-0.10489699339082392
aF-0.12486594934013284
aF0.07338751770607976
aF0.019328168465584855
aF-0.030336636444743034
aF0.05331344298212928
aF0.05310410114741962
aF0.07361673190919774
aF-0.12899785005470868
aF0.07731217527751265
aF0.2702739166969823
aF0.12744321207209075
aF-0.03754328020174952
aF-0.03574721574901432
aF-0.015517233209590251
aF-0.005678523071119986
aF-0.07425524312700756
aF0.0901890163676289
aF0.03829869023239052
aF0.1262727652147539
aF-0.00958403671627438
aF-0.12845384603402027
aF0.12750253030207923
aF0.16744230650196398
aF0.06939408049421435
aF-0.2704291500287364
aF0.005646683429342141
aF-0.024279280328787716
aF0.13251151789196206
aF0.06871559930300566
aF0.01493533400924224
aF-0.02428034455226022
aF-0.04316611006915893
aF0.07136858760388963
aF0.06059233156370371
aF0.015770636750032506
aF0.1623116756259292
aF-0.054084852358497464
aF0.13336502141565046
aF-0.0833923708902865
aF-0.16482573345143134
aF-0.007527915895363304
aF0.02324316009735607
aF0.030911202564255027
aF-0.0289290558898869
aF-0.19624627074539655
aF-0.11102622246621976
aF-0.04809937457786839
aF0.15956287230965585
aF0.10865370781172744
aF0.18843479826670256
aF0.21475573081872681
aF0.14291245503323538
aF-0.04373161392636616
aF-0.002807449215626672
aF-0.10146451653700857
aF-0.15097626732585506
aF-0.08041295360516242
aF0.02411986469177739
aF0.02596893486566546
aF0.246213536130057
aF-0.039885883556744564
aF-0.06450205104442033
aF0.01418368205123177
aF0.013927966085502461
aF-0.11445835092813621
aF0.100762508600652
aF-0.06521699705673291
aF0.046459640832861034
aF0.0891168300049623
aF-0.010038111077869118
aF0.029086366752135658
aF-0.17674668636185456
aF-0.07324925281714867
aF-0.06881233939763665
aF0.06913608595946023
aF-0.015610246967966507
aF-0.09613615612776455
aF0.0795418134974725
aF-0.14523149052374676
aF0.0793395170118449
aF-0.2287171397203608
aF-0.012981356367932816
aF0.004147621417002588
aF0.11279663503804
aF0.03191216511673034
aF-0.09620639504890709
aF-0.09090920784388297
aF-0.023998201071030612
aF0.16950291066355344
aF-0.07190667410134327
aaasI6
(lp42
g24
a(lp43
(lp44
F0.006109316340822682
aF0.2423326854401442
aF0.004201909042682805
aF-0.016782011811456304
aF-0.07564344339727438
aF0.02361307836339105
aF0.08689791176048617
aF-0.0358226177206227
aF-0.011444960727745146
aF0.07833585944928195
aF-0.024179189319356913
aF0.11466632626129072
aF-0.09255916806489475
aF-0.032161342444187085
aF0.11805748456661216
aF0.10150694070382225
aF0.014317885856259817
aF-0.1694843184740471
aF0.11306083633746279
aF0.013783504074873639
aF0.21513221012569092
aF-0.1297090498170817
aF-0.01883714737711887
aF-0.11891182711421526
aF0.06795493216010559
aF-0.0771876875126475
aF0.11533977486382216
aF-0.08489853068817946
aF-0.015842471415853005
aF-0.016075655685871774
aF-0.16615977572254698
aF-0.006727740285023644
aF0.04312519270839725
aF0.007614955304218145
aF-0.14033152765358425
aF-0.10262285415953645
aF0.04748423151808334
aF0.004652458479023965
aF-0.040136529089816915
aF0.06291689858133004
aF-0.1681810099905357
aF0.015260863271149777
aF0.1069036422136112
aF-0.12125797236135513
aF-0.12441126413264815
aF-0.1891896492681445
aF-0.07633822059659992
aF0.2161409146332397
aF-0.037181128100650176
aF-0.17807800717673222
aF-0.1599098966299365
aF0.17109139895994463
aF0.225937718247743
aF-0.04373044875154311
aF0.129069112189626
aF-0.3102125416965086
aF0.03558686963626382
aF-0.024928785837205675
aF0.12505772360742787
aF0.1666569249088368
aF0.17976259068114728
aF0.01980227244345388
aF-0.07643641005010571
aF0.03176897637416474
aF-0.17915732357287661
aF-0.024747997439618724
aF-0.06952705509894276
aF-0.104181937404124
aF0.19760565735911823
aF0.018851680186711073
aF-0.06197496271515007
aF-0.11583003877422822
aF-0.14120380123097676
aF0.010842812190526728
aF-0.07680539055735651
aF0.11266377679437546
aF-0.03347944614067627
aF-0.11507286178524886
aF-0.08249846222121685
aF-0.007239015735986926
aF0.027483846172722304
aF0.0534116374962908
aF-0.013796194405815733
aF-0.03208432180268645
aF-0.13645363632051916
aF0.20096901478261525
aF-0.0837309644460924
aF-0.04424908819770563
aF0.008199935047455132
aF0.050267134656975854
aF0.06811508685920063
aF0.08587022898909338
aF0.034333609202336864
aF-0.0469892508275131
aF0.2041048259761572
aF0.07566777650067728
aF-0.08535029684121717
aF-0.05187059539544086
aF0.1439372509912685
aF-0.07324021750968762
aa(lp45
F0.03414739258898318
aF0.10068886776615393
aF-0.018913664500794514
aF-0.01023679830383245
aF-0.049304630760920884
aF0.04199082574321779
aF0.05074689404071138
aF0.023390157203179614
aF-0.0356124611312576
aF0.01887813811710606
aF-0.07846899529776066
aF0.05217576257122919
aF-0.06942198098441749
aF-0.08862193044011035
aF0.039921347650189225
aF-0.015577322470599368
aF-0.01046293237857095
aF0.021516808452756542
aF-0.025865655822184835
aF0.11005556143621992
aF0.11261960344349997
aF-0.20590145517302533
aF-0.06033197943309661
aF0.06140241914677202
aF-0.011634505638716855
aF-0.02417792654848101
aF0.07101296239470471
aF-0.09825605292149
aF-0.05577989729667967
aF-0.12812497885193727
aF-0.11984891664964767
aF0.06941183179409456
aF-0.04405964264818686
aF0.00431736211185156
aF-0.16271041563931585
aF-0.09275657636731928
aF0.011202365148356324
aF0.12168763357097957
aF0.048864491155121564
aF0.0012554605883933864
aF-0.17127299625083742
aF-0.09890102858830763
aF0.01782843357747324
aF0.01885514988698657
aF-0.15608705125216224
aF-0.030008980555983375
aF0.03785564746286875
aF0.008940712268068971
aF-0.03199711115082529
aF-0.05763600985831675
aF-0.10278678109256119
aF0.175106195270678
aF-0.01066216427517483
aF0.03141622527846152
aF-0.0017140462382218549
aF-0.12338686339481847
aF0.01778262781422952
aF0.03998035154430146
aF0.10667102190472551
aF0.09877323176574909
aF0.10946914587321983
aF0.04831861334277206
aF-0.11202551913425486
aF-0.08938273342143396
aF-0.031826397497272084
aF-0.06562790926622512
aF0.11892449425813176
aF0.014636111346414911
aF0.018861232942562534
aF-0.003640805782207378
aF-0.020062068712527262
aF0.008677803578546727
aF-0.0033391231233843577
aF-0.030512118781622542
aF-0.04786955820746979
aF-0.02411569412097853
aF-0.06600915277192781
aF-0.04014857739053429
aF-0.04754805149749882
aF-0.1267974822439737
aF0.047616746263791435
aF0.11951459682962602
aF0.03690146864324542
aF-0.12946666277464755
aF-0.005638983645397236
aF-0.10260754954557265
aF-0.051931158926925035
aF0.012515555742033056
aF-0.04064836836880596
aF0.06542416347093084
aF0.04079922869156131
aF-0.07124108640923558
aF0.04319177733545051
aF0.006042227321433975
aF0.033977850804089924
aF-0.07273937686677183
aF-0.07679647976582513
aF-0.004132194048019989
aF0.0915479128625979
aF0.058515189090251794
aa(lp46
F0.0629707723165303
aF0.006011629391706519
aF-0.12167952282575556
aF0.013797663210306923
aF0.14809585673206416
aF0.08098940873250177
aF-0.05714175319240988
aF-0.06752532690402392
aF0.02212302281053144
aF-0.07946205323182763
aF-0.17759754551881038
aF0.2002444783644774
aF0.040469862683973956
aF-0.07909052106538166
aF-0.11433286862027214
aF-0.022858287507364777
aF-0.020436535953271155
aF-0.09005972838814473
aF0.1294088959407524
aF0.12072926935954367
aF0.16412253526129897
aF0.034753755788650004
aF0.05744219341219591
aF0.061107143632688404
aF0.019169660082449295
aF0.00320477233351916
aF0.01656441098567197
aF-0.005340008417898776
aF-0.08900302896228458
aF0.18962117431708278
aF-0.17370407833203566
aF0.06250522990065425
aF-0.03136938750878739
aF-0.1249871917490697
aF-0.03137873018001359
aF-0.16421856742708363
aF0.09130716646495027
aF0.10522259394427308
aF-0.0766242800211116
aF-0.014108536128959515
aF-0.05433684202013902
aF-0.09829826884936256
aF-0.042930994046113155
aF-0.08109063091065874
aF0.008849580234533331
aF-0.08264849620866999
aF-0.10141100164498798
aF0.11424269181259722
aF-0.13844948657974995
aF0.063834361774795
aF0.05327641981677536
aF0.21736142351099533
aF0.049508585990240314
aF-0.08293777041506645
aF0.06316666789906261
aF-0.20262960168950808
aF0.03988345738940074
aF0.0214692758212322
aF0.07457180578618748
aF0.10847774945186354
aF0.13163103455362715
aF-0.012915046525513757
aF-0.0729450027147327
aF-0.09346187130845086
aF-0.14160752810909166
aF-0.23180251726987078
aF0.07054911785182723
aF0.04392521449177886
aF0.046451366785048055
aF0.04541288827065957
aF0.04329668981763564
aF0.08906346174299647
aF-0.1260222833499179
aF0.003029273736914676
aF-0.026140781190096656
aF0.07621056563337139
aF0.12291372268395863
aF0.06480379799889394
aF0.012284179880538471
aF-0.16533976931236977
aF0.04017154132382358
aF0.09021188913574094
aF-0.04318634443295497
aF-0.06621199527612436
aF-0.07207010453184017
aF0.05447370703021987
aF-0.026946145517914286
aF0.09757820060047862
aF-0.006800025680505601
aF0.06336666543208505
aF0.11527770558111056
aF0.06002953918033967
aF0.017648638328520424
aF-0.13659797143060856
aF0.08975702668395151
aF-0.010368478808661125
aF-0.0972293834483699
aF-0.05008630931630866
aF0.11969263822516807
aF-0.10395247205839186
aa(lp47
F0.02149144889821764
aF0.052105910626361995
aF-0.038525648592745154
aF-0.045965351451973335
aF0.04176876119978773
aF-0.04185448459612248
aF0.0064988539752846505
aF-0.19098008040199765
aF-0.0018540647016333789
aF0.06315359291950318
aF0.023609666147301672
aF0.23627731174913874
aF-0.08858482463497722
aF-0.05738802910606279
aF-0.024036716226620507
aF0.07161319174195405
aF0.031258272977705864
aF-0.051624365184774854
aF0.015207350370294895
aF-0.08150014267560907
aF0.13404007179236252
aF0.02808296928415235
aF0.06120092712451149
aF0.03168164090287587
aF0.008665785094242848
aF-0.08144055156316826
aF-0.01341295864778438
aF-0.0006592875025783907
aF-0.08872040720372687
aF-0.07805918114010005
aF-0.19638007869385624
aF0.11791144872762645
aF0.07895239734381918
aF0.04267919647936611
aF-0.09344588902657476
aF-0.18270202956218679
aF0.015154931729222514
aF0.11852953945926371
aF-0.13913905796394085
aF0.026591477436957927
aF-0.07228604221222702
aF-0.0449866670014524
aF-0.06505257964983549
aF0.017408578211799027
aF-0.03434341245456269
aF-0.04145756208802992
aF-0.03640991248263654
aF0.17160566420068302
aF-0.057102769740606726
aF-0.013259122743983167
aF-0.07401383240647164
aF0.02779910871217824
aF0.11453677211993904
aF0.010884290275948002
aF0.08091867649103648
aF-0.14595337416314727
aF0.022942500175789193
aF0.01813778000606261
aF0.00869266536985862
aF-0.059737592254530604
aF0.10525910310290182
aF0.056820201275420264
aF-0.0835781378115151
aF0.0024738322163954662
aF-0.13686496126717096
aF-0.017719143247192266
aF-0.01632170625089621
aF-0.009734508648818566
aF-0.02445844344249574
aF0.04051685422906207
aF0.02667366851465206
aF0.005387787679098994
aF-0.08133768269284548
aF0.10559598258572774
aF-0.008150040391443174
aF0.016538266674193555
aF-0.0703648108339813
aF-0.10394555262395834
aF0.055553656333664214
aF-0.13029023157404598
aF0.1111567500164962
aF0.045637823764209204
aF0.16941247840830012
aF-0.14878664014718568
aF-0.03284411383371723
aF0.08461558588690984
aF-0.014474979351883627
aF0.020002105889503546
aF-0.20378438610080088
aF0.06369491391567526
aF0.042944887750808076
aF0.12348411659189046
aF-0.05368876365832013
aF-0.07832173008983224
aF0.03609106835089555
aF0.07342501401073857
aF-0.10741426372261915
aF-0.09518615516938622
aF0.03785524365987559
aF0.029683198395590606
aaasI7
(lp48
S'3'
p49
a(lp50
(lp51
F0.08271362966222418
aF-0.12481232454015945
aF-0.0073049326997676745
aF0.028569151552956196
aF-0.06465922229467155
aF0.05045766800947992
aF-0.05353252758880113
aF-0.14460665672843306
aF0.11657457708228816
aF-0.062046321429152146
aF-0.21049354143785018
aF0.06419201005367219
aF0.004048004404144587
aF-0.09637372698433364
aF-0.08324401535288987
aF0.012593851266733706
aF0.04183477090050318
aF-0.07703484927591223
aF0.10259601397905845
aF-0.02334352037252827
aF0.07523887974040636
aF-0.031276735029048555
aF-0.04345903403319642
aF0.13174481250588826
aF-0.012956301983169284
aF-0.00944204254423879
aF0.1318078876421895
aF-0.019194238972146442
aF0.04598516428105165
aF0.048713196558676224
aF-0.12990230508811332
aF0.07097219876118065
aF-0.12977792141918298
aF-0.08437047619368498
aF0.026661009172126122
aF-0.06741818141381574
aF0.003473461292823589
aF0.08619775370337102
aF-0.05345624452318191
aF0.08508286650889542
aF-0.11701309812849332
aF-0.14031795697477448
aF0.00332275206480982
aF-0.027121769924558427
aF-0.02001862391907939
aF0.09953994306005526
aF-0.05539702449493138
aF0.11296919732708939
aF0.03324142269410617
aF0.04071122051172137
aF-0.1466771568370878
aF-0.06504953680147542
aF0.01316695433609382
aF-0.03338650188306416
aF0.07699119916482547
aF-0.031359465318331
aF0.08140259416519048
aF0.10231120972177545
aF-0.08587395804822587
aF-0.0362505108984984
aF0.26198374807955527
aF0.009725874640029827
aF-0.12999712171137554
aF-0.085071060771874
aF-0.0058120815752344
aF-0.07751545959192106
aF0.09682054975619332
aF0.027760887139669555
aF0.20091392148084894
aF0.04157438167484799
aF-0.04596476569878601
aF0.014635826853975274
aF-0.09068072942612995
aF0.005317775982789379
aF0.022849471181474568
aF0.03337694037450793
aF-0.0027825892861834157
aF0.056757439931037955
aF-0.08083067825991988
aF-0.13990778131815257
aF0.004013796598587822
aF0.015974382681058084
aF-0.1822283799598748
aF-0.09177014534746648
aF-0.0365036625654342
aF0.06522556936629638
aF-0.13387576854560151
aF-0.07472175765282585
aF-0.03958900746217149
aF-0.00010170041880158112
aF0.18508204523554647
aF0.018769077375606086
aF0.1392181536440559
aF-0.22434688410519268
aF0.01520579456769787
aF0.014514240665814894
aF-0.0035741407223183956
aF-0.020329795882694093
aF0.118953407704733
aF-0.10983579741169452
aa(lp52
F0.1757370177820444
aF0.0019105373383334068
aF0.025674578101559598
aF-0.05463855101064807
aF-0.09162220395024881
aF0.005510775206429952
aF0.02992094815304419
aF-0.07597776249055571
aF0.13307865586776077
aF-0.1549185915188051
aF-0.15699177505422007
aF0.010534955780679145
aF0.055318971889772285
aF-0.013539261406814457
aF0.014999718987210909
aF-0.04867900324504327
aF0.15711227890962715
aF-0.0033955375055995623
aF0.15497643886546125
aF0.02280844513548037
aF-0.024378613939226895
aF0.14952065257469427
aF-0.10691607540162731
aF0.09458618929041626
aF-0.013561423912439146
aF-0.08909376563331312
aF0.20998463855997992
aF-0.10304676122551441
aF0.12725210348695232
aF0.0448340543449498
aF-0.2167080959707785
aF0.053055634837616
aF-0.16019834153905887
aF-0.030499000140033504
aF0.03833177687536626
aF0.05955465508232879
aF-0.06902105254937113
aF-0.06545441317477713
aF-0.02875332520899611
aF0.053204141576806
aF-0.04300802907070043
aF-0.1288232568913115
aF0.051936523916823775
aF-0.07247687408383092
aF0.03689014923567098
aF0.0748849191918993
aF-0.026769470924372093
aF0.056071096691104834
aF0.007897660125252354
aF-0.04518637224096851
aF-0.11945995765473395
aF0.0022189292658035733
aF-0.012606685734417441
aF-0.029694210387276904
aF0.06938344546691894
aF-0.008957721199506686
aF0.10230586443173677
aF0.03522344992905064
aF-0.052938638447889014
aF-0.05348215936513229
aF0.12488329534577633
aF-0.07481850867718992
aF-0.08867155874977008
aF0.034546657076741684
aF0.049807575741815505
aF-0.06515899382718938
aF0.12813322374708017
aF-0.07848761725446018
aF0.08305239466178531
aF0.05893227758546822
aF-0.16408612333512707
aF0.048057653606416985
aF-0.031935018506670604
aF-0.04352010022085155
aF0.04927865901656475
aF-0.008398966256295498
aF-0.09439546954900863
aF0.03147137218209777
aF0.03148352008237573
aF-0.08024193414435152
aF0.005898001796903355
aF0.0010751660237868367
aF-0.11610885596574061
aF0.038515404823888925
aF-0.018812391633634816
aF0.026832325729624244
aF-0.16950074962146244
aF-0.08033190356898122
aF-0.049413099662544806
aF0.07345009498850479
aF0.16518670104904626
aF0.07440150245004228
aF-0.005285835711085085
aF-0.2718982768559471
aF0.029847525504121
aF0.017010064582537208
aF-0.028593629089059682
aF-0.0567246319035247
aF0.19190689808034234
aF-0.061112461548833444
aa(lp53
F0.2062449281396464
aF-0.014739422102124033
aF-0.13011464794518474
aF-0.06992537223667855
aF-0.09172012649793942
aF-0.03257009021596998
aF0.014187183698535909
aF-0.0682755309639067
aF0.11411131566894642
aF-0.1354556794297532
aF-0.1734503599399096
aF-0.05191521242481002
aF0.04631015347342062
aF-0.02449223250810522
aF-0.04591018877232201
aF-0.013398522586540507
aF0.23568224843137875
aF-0.0010481170306340624
aF0.14405908324853947
aF0.01915550724728649
aF0.019847253555177077
aF0.15388705316327575
aF-0.06477727288876252
aF0.08434128513970732
aF0.03385129373837621
aF-0.025077507391868047
aF0.21216233510689533
aF-0.06342564766488185
aF0.03266272864845013
aF0.09003297115928854
aF-0.16786364734354364
aF0.0170102303424362
aF-0.15121710509868885
aF0.0305540659080551
aF-0.033811485154873734
aF-0.006321863570245003
aF-0.08415057861547882
aF-0.13597681267379644
aF0.006078099671725231
aF0.07721469826083555
aF-0.03171706942210886
aF-0.08999763369601363
aF0.09078093325215088
aF-0.024366919036303895
aF0.030324626841358192
aF0.025005286728832603
aF-0.1012253753148994
aF0.08855479316965356
aF-0.011983800999895804
aF0.08830022382269917
aF-0.13004728651576958
aF0.03705187562169675
aF-0.013497784339475159
aF0.020695996370569437
aF-0.01230650395797871
aF-0.10894456050547208
aF0.057588507186029564
aF0.03526964832189419
aF-0.028431647328750555
aF-0.03617622155429818
aF0.11185217419263616
aF-0.07906363727256498
aF-0.14735562117999595
aF0.010887089845845016
aF0.007474387073773444
aF-0.08845087903066312
aF0.1222819687939882
aF-0.05547494118194463
aF0.03376318809348994
aF0.02846465957776736
aF-0.12713808503443177
aF0.02846663752415056
aF0.009043950580611047
aF-0.01708995741154528
aF0.04648939680241173
aF-0.0635790194016095
aF-0.16135034203629484
aF0.11816737612456597
aF0.09871866854004531
aF-0.08225994773197143
aF0.006245306591820354
aF-0.02298108075012642
aF-0.0771077523863543
aF0.08607850141934825
aF-0.11198745746483252
aF-0.008971921427428564
aF-0.1376000086543577
aF-0.08194431667314597
aF-0.07238045926691415
aF0.07026537486562125
aF0.13066184499058947
aF-0.02080762399425382
aF-0.08372972578863357
aF-0.2168442211348754
aF0.08216277383205199
aF-0.004540325977000989
aF-0.056795768639893274
aF-0.15105610378639078
aF0.06117077799596928
aF-0.0954835615638445
aaasI8
(lp54
g49
a(lp55
(lp56
F-0.010427775820952336
aF0.15101859162063652
aF-0.07430831725490433
aF-0.09035229049472548
aF0.018952012401881713
aF-0.03911944153736263
aF-0.029505529960152585
aF0.03585831945671447
aF0.08293618288296065
aF0.06980797639221381
aF-0.017968240933335322
aF-0.032412045026705485
aF-0.09768074842396374
aF-0.12432147516121593
aF0.022670140183538526
aF0.1430171499324204
aF0.040517698173374174
aF-0.04985915953374237
aF0.035018568292899795
aF0.042329629844894356
aF0.21873820857047
aF0.18325198640634283
aF-0.07248132462725074
aF-0.07519492366772422
aF0.038102269075668944
aF-0.09757262558967213
aF0.014103716693948953
aF0.09273214605033936
aF-0.037178797105974236
aF0.13926010218118012
aF-0.14125563470794195
aF0.09988276226738085
aF0.08673540980567661
aF-0.1804904864441243
aF-0.0788021867445097
aF-0.16438090933971405
aF-0.007496969600111907
aF0.13228495232614146
aF-0.23353398536352132
aF0.06379268897381575
aF0.029112217821949598
aF-0.026285352929082618
aF0.08175203276059609
aF0.03320583998835669
aF-0.07629311498830652
aF-0.11960122072769562
aF0.08050372141019876
aF0.043747727969709216
aF-0.12165304846023597
aF0.027416612660571115
aF-0.07619158589248815
aF-0.06732727447491887
aF-0.21904656764838756
aF0.0019938033966932127
aF-0.001921152255956726
aF-0.09620319539068158
aF-0.016535693731273126
aF-0.08003334374931695
aF-0.0955378825896484
aF0.12555654244371425
aF0.2041911754119236
aF-0.07035908148709592
aF-0.03653563165644631
aF-0.07873024106461152
aF-0.03965149542959149
aF-0.07758959542773229
aF0.004757352495556313
aF-0.014984476048155804
aF-0.12996907065700616
aF0.18273648414660315
aF0.021347716983573767
aF-0.06050649301127164
aF-0.09700418290019763
aF-0.05526494926166647
aF0.1836759150992259
aF0.09442026282868578
aF0.02841206780914617
aF-0.200176438042261
aF0.0008412617702565579
aF-0.10117454625433037
aF0.1166491765732659
aF0.20620757716763552
aF0.014996259091943055
aF0.17240461545380364
aF0.10784724382934587
aF-0.03795786736911176
aF0.050776199121913654
aF0.14332164954705265
aF-0.1008616910565202
aF0.17553301884066086
aF0.09849759040320191
aF0.13918491427216237
aF-0.10400805970422099
aF0.0735998105442743
aF-0.09214826322718389
aF-0.11329095808454528
aF-0.1680884513517694
aF-0.16222960954129817
aF0.14646421679919328
aF-0.16640068139662278
aa(lp57
F0.10153390889039779
aF0.17568725744828143
aF-0.1426594177560363
aF-0.14436300863004986
aF0.1731333332503427
aF-0.06814167074173422
aF0.008448123491745563
aF-0.11777757521039109
aF-0.04453440921378677
aF0.031239830383736407
aF-0.0639660536965247
aF-0.06067473580620053
aF-0.10045639662930782
aF-0.03015264486111348
aF0.012179653929004233
aF0.05436944405713953
aF-0.16428104184326484
aF-0.15065183718100877
aF0.017435739130561328
aF-0.045801464096264934
aF0.08162981350992106
aF0.00047580363554760994
aF-0.029190259403654686
aF-0.042945768804289894
aF-0.029281926200187963
aF-0.15921474001768673
aF0.06598932403803727
aF0.02761754584498161
aF0.04723761234044107
aF0.13452631064270598
aF-0.06167855693311434
aF0.07946819211743607
aF0.02919278142686586
aF-0.09743297208315518
aF-0.17907979792316261
aF-0.15207196856385508
aF0.062384515977414096
aF0.19169303007984584
aF-0.054002993296339154
aF0.08570673780558151
aF-0.02573983589329255
aF0.07738232176506492
aF0.051314357348569914
aF0.01891372937216573
aF-0.027035314970212675
aF-0.02572146216796719
aF0.07156043079542138
aF-0.0874086692577439
aF-0.0513819543662603
aF0.06427197177773053
aF-0.10608165648983711
aF-0.007609582160026893
aF0.0017324601119407404
aF0.018210376590671488
aF-0.11479385880060021
aF-0.057106118819464514
aF0.06493769312676276
aF-0.09359282896340447
aF-0.04324764454404452
aF0.11922787873076762
aF0.04457358170413129
aF0.19624602399758198
aF-0.05317017190165369
aF0.07003348438297168
aF-0.11019988556780698
aF-0.01210962629029071
aF-0.10234458472310701
aF-0.13628345262543023
aF-0.041248724277566574
aF0.07840484717251944
aF0.017049680051355744
aF-0.11979121457744671
aF-0.12210096090495952
aF-0.06865802480114805
aF-0.0598263479557098
aF0.07937174658747898
aF-0.012472670586239222
aF-0.15674518787018238
aF-0.15894638896491817
aF-0.15966040559546266
aF0.016809418236138796
aF0.15518342245443803
aF0.06911175554336196
aF0.22182085455706263
aF-0.040551797473730083
aF0.016563125818824506
aF-0.02206095230290537
aF-0.014366390695511993
aF-0.11198626380545611
aF0.15495150361781498
aF0.1270933658201755
aF0.11141704439378441
aF0.047028494667519835
aF-0.0907600672010798
aF-0.04143940360900139
aF0.012644786815248579
aF-0.17016852750994532
aF-0.2140965614827643
aF0.10757126162191376
aF-0.09756564310177725
aa(lp58
F0.0974470864668174
aF0.14844913477949417
aF-0.0572899151303809
aF-0.22324555245779698
aF0.016426132095934614
aF-0.05212744703247852
aF0.03421398900564149
aF-0.01996273387312518
aF-0.11990148650051694
aF0.02244531130129196
aF-0.023091004888091543
aF-0.027359206767871902
aF-0.016616999477313855
aF0.02207102429341266
aF0.05926822078958769
aF0.18650027215815984
aF0.033270951107771916
aF0.038058077702768325
aF0.0374579030597621
aF-0.07637217500077667
aF0.17603235456199479
aF0.20402184146627333
aF0.0627650763079062
aF-0.1325294564952947
aF0.00856835962400169
aF-0.05530480519273832
aF0.10383488273327615
aF0.07599527896702851
aF0.041968507153493435
aF0.20224411860449504
aF-0.12442146978933401
aF0.06809787160148568
aF-0.09351148885994666
aF-0.20827999005120731
aF-0.2271599733296005
aF-0.0047505006757037815
aF0.14621132700341427
aF0.171409140706693
aF0.03125120360771743
aF0.033506259187269044
aF0.08058728318387498
aF0.10234625262716064
aF0.15381121830023065
aF-0.01884061410567961
aF-0.08260387997388523
aF0.0088211309964717
aF0.16730351889024367
aF-0.08482510181398407
aF-0.08946792103782862
aF-0.025065014063430768
aF-0.03083726788273624
aF-0.12087110883231668
aF-0.22861634855601193
aF0.06763824914941834
aF0.10563526207056756
aF0.019743036530192812
aF-0.04341367018003595
aF0.15653801397911637
aF-0.1459829393675964
aF0.2256171996169623
aF0.008021831194284339
aF0.1225393059929468
aF-0.0060377260305655486
aF-0.008882505597246595
aF-0.17685371117829912
aF-0.16395569837060178
aF-0.065157456668817
aF-0.03236760006561943
aF0.08026148089924598
aF0.04921906398887642
aF0.16298961071237542
aF0.11481424003609386
aF0.06212405995993594
aF-0.020183225489322602
aF-0.0053468108342341536
aF0.09784407200527215
aF0.0390248159417949
aF0.0020222237372428727
aF-0.14576712854724128
aF-0.11247065171148042
aF0.15625563635402792
aF0.06304089576626191
aF-0.017298800989787855
aF0.20919977009076074
aF0.07068890569552366
aF-0.19776653591209317
aF0.04011353282415779
aF0.03560063250846844
aF-0.12136756813384372
aF0.05397970348532097
aF0.013230191455937394
aF0.07375949477248864
aF-0.09425656236222614
aF0.06809733662082025
aF-0.023890919744741116
aF-0.1296039640112281
aF-0.0051722623875355015
aF-0.1319417798785238
aF0.19373414512030082
aF-0.13562153270124197
aaasI9
(lp59
g49
a(lp60
(lp61
F0.11411959758466593
aF0.1931399260134503
aF-0.006878050914071836
aF-0.07971822728906436
aF0.048533012441223655
aF0.06839065859530352
aF0.1769542674942461
aF-0.05786443532231819
aF0.030132355448370007
aF0.00016135940554662387
aF-0.17609158825027177
aF0.2530416379920127
aF-0.10597180701071474
aF-0.15701281909972073
aF-0.05942615900966065
aF0.01999937828234831
aF0.018091768697828317
aF-0.07237929898203081
aF0.08309728942251858
aF-0.0648941552604845
aF0.12752772970854181
aF0.07513159679143974
aF-0.025006054405072038
aF-0.10825755323544334
aF0.1366074453971972
aF0.018213687452954472
aF0.16635024937775011
aF-0.12309893763222218
aF-0.04640419924850645
aF0.13656186477254018
aF-0.14289243593314663
aF0.021744621973022193
aF-0.10218093485878112
aF0.014528990559003911
aF-0.14920879875471788
aF-0.09675100709153234
aF0.10282260868616398
aF0.014548824288354972
aF-0.03290181085440138
aF-0.0073021511307501145
aF-0.07790814610499455
aF-0.04934399428313147
aF-0.08208534384355652
aF0.10235835054650727
aF-0.013195940143215894
aF-0.08314599220069528
aF0.08229814570073972
aF0.1006019371134029
aF-0.1122774050753024
aF0.10327039518461682
aF-0.02868334346261273
aF0.35990561373494917
aF0.18744688242258553
aF-0.04826549847484248
aF-0.11435765368093581
aF-0.069707621675565
aF-0.030922650511664644
aF0.017421935208443665
aF0.15473912747715143
aF0.22882126221943042
aF0.09189622747388927
aF-0.030411700508025333
aF0.03063501566103824
aF0.0059495694008098714
aF-0.2947085489319946
aF-0.039780000050283794
aF-0.06826614666355452
aF-0.054030698817436225
aF0.07844383316478383
aF0.14679582200485516
aF-0.08799813395632831
aF-0.0024864295229459574
aF0.004824692422520163
aF0.15502159176377198
aF0.010842148469153129
aF0.08420623772221669
aF-0.012644179669926899
aF-0.06512319183089106
aF-0.030516788838409154
aF0.03757508281318108
aF0.2525452666804121
aF0.061699570025169764
aF-0.03279386071549046
aF-0.02519701806437096
aF-0.07280961467190386
aF-0.04659531524045073
aF-0.05334243527099358
aF0.0673529856358301
aF0.025211046504630675
aF0.14463144372650158
aF0.22554414628787975
aF0.03333633683435667
aF0.0827893046376437
aF-0.17615632312202312
aF0.12790548260110954
aF0.05742130666627635
aF-0.04125950372952363
aF-0.057364993840853765
aF0.14735706044545288
aF-0.018087929880399322
aa(lp62
F0.0026214610016731107
aF0.10372303991470963
aF-0.14811220632774758
aF-0.04730884622118792
aF0.05388258131226184
aF-0.015344966121030201
aF-0.009605851324574172
aF-0.0010483902669846065
aF0.05253163586574708
aF-0.054748388375065446
aF-0.07311007108075177
aF0.0780063535534266
aF0.02457260522607979
aF-0.05237281008533656
aF0.02042644790798254
aF-0.057049117411536954
aF0.02659148298649589
aF-0.028600721218106993
aF0.10927162672449386
aF0.013843446299962984
aF0.10604803237785435
aF0.007001092602898083
aF-0.07166380326023461
aF0.028338875023723835
aF-0.02756852622718307
aF0.014500272365310414
aF0.059267049833746054
aF-0.08313093170147115
aF-6.816626992601105e-06
aF-0.003291287175011258
aF-0.1081481844996762
aF0.04488908325314115
aF-0.10757835268911006
aF-0.07089779611761059
aF-0.06661531708808147
aF-0.07055871927616661
aF0.01614197689072519
aF-0.03724959105193678
aF0.09327680413059024
aF0.007062419799416918
aF0.017543787180580035
aF-0.06328846913217273
aF0.021776449032447926
aF-0.07280444591021774
aF-0.07512321283522864
aF0.00626984891981879
aF-0.021830004884678945
aF-0.013591349124050819
aF-0.0319433456056434
aF0.02204853788912689
aF0.0014340684005234414
aF0.14338857680325087
aF-0.027703306212943854
aF-0.07303079733388038
aF-0.008619531092986908
aF-0.15559324367695535
aF-0.008429773389016492
aF0.05901127237658036
aF0.05830045145594338
aF0.06676859827222496
aF0.06716336039043057
aF0.04326814236773922
aF-0.10626646057305138
aF0.010025641390354865
aF-0.051651493690276294
aF-0.09549247697070634
aF0.049021507271396036
aF0.03607266139691804
aF-0.013663945236554979
aF0.1050793126093275
aF-0.08689068503014873
aF-0.038801279653501296
aF-0.050119030420227695
aF-0.03808016657244472
aF-0.07730334264485417
aF-0.08554503324010765
aF-0.010908311460272487
aF0.06100770058013132
aF0.05937205245410938
aF-0.12736131557752076
aF0.0713512829789259
aF0.09480051811703007
aF-0.03417545914881122
aF0.030480031139832685
aF-0.0432929736288317
aF-0.02040489223752561
aF-0.0420186934329127
aF0.07827589995192039
aF-0.019629275079839463
aF0.10588334731092985
aF0.08534134424466981
aF0.059066937436784026
aF-0.03806290099162434
aF-0.08246144352606531
aF0.0986626842465688
aF0.10227027748148504
aF-0.05347624656197026
aF-0.021825656179698266
aF0.050293540505986944
aF-0.03235086179822194
aa(lp63
F-0.03432124069890187
aF0.16352084050184673
aF0.01834538764161725
aF-0.066656831220269
aF0.025924774727636685
aF0.08292551722382041
aF-0.04361607591384231
aF0.0035995903153675235
aF-0.023564866823067493
aF0.10092954429449182
aF-0.09395893569932252
aF0.09559748567670374
aF-0.13178179802902268
aF-0.09925694003584587
aF0.07776992984959188
aF0.06381229162609857
aF0.027743615992056242
aF-0.12669594560360323
aF0.1636420588547771
aF0.034926193591333865
aF0.31799585207583564
aF-0.20644846427928
aF-0.022027998044267895
aF-0.08740506883410548
aF0.048824223642194894
aF0.003545370194782494
aF0.1484960168066035
aF-0.13572015555697262
aF-0.058576620506625016
aF-0.008527544021058368
aF-0.1856152010453234
aF-0.017191359905336327
aF0.03350399217912124
aF0.01505944633788598
aF-0.17230582038941392
aF-0.12505201898008297
aF0.011632402849759816
aF0.06597228969061374
aF0.0626494790592959
aF0.11934192174299642
aF-0.17315617778013473
aF0.04425229925098354
aF0.0975519844808422
aF0.003629705413052942
aF-0.06562825297535793
aF-0.13059022391544722
aF-0.0909983637269839
aF0.1613365605720406
aF-0.03836674102335464
aF-0.05455013250058442
aF-0.15702643230978405
aF0.1488914245683942
aF0.1481300848275948
aF-0.017004931659254294
aF0.030877548108787112
aF-0.27888778887962123
aF0.008648492172424097
aF0.0009107325262974412
aF0.18168514002070954
aF0.1806355306661339
aF0.17353242415689396
aF0.041737378344438913
aF-0.07057441460924332
aF-0.01957813859432175
aF-0.16696360688512166
aF-0.07565974296608972
aF-0.11516457536278434
aF-0.016684593665521212
aF0.05742966479950667
aF0.044544928335055876
aF-0.05873633030768306
aF-0.11729789694120825
aF-0.14743515774380708
aF0.03475923596503736
aF-0.04167583849827116
aF0.09230528763926074
aF0.00038170727549619585
aF-0.011533792983972191
aF0.008036510533855156
aF-0.015662024612899193
aF0.10441576687202496
aF0.001973886196708929
aF-0.020451829103313987
aF-0.060246100248948345
aF-0.08566377557229903
aF0.14143917843229353
aF-0.05418192043745889
aF-0.04889823970066549
aF0.004912809617924485
aF0.02894793184186045
aF0.06129173472958711
aF0.07016355920666138
aF0.05507938589643556
aF-0.16338916515021634
aF0.19192340677247569
aF0.15650030461689476
aF-0.06908928762403344
aF-0.0073541744336573164
aF0.09233682199423889
aF-0.046013511479284924
aaasI10
(lp64
g49
a(lp65
(lp66
F-0.1538107068619246
aF-0.2988050581724333
aF0.012709927631433304
aF-0.33179621378717683
aF0.04022653240673402
aF0.06855895387644075
aF0.0986271855854998
aF0.08382521624645725
aF0.17017487377462853
aF0.05886850083913622
aF-0.26653652547238715
aF0.28529616952836456
aF-0.1309123577118352
aF-0.19220407501116465
aF-0.02684575966478278
aF-0.04520235257525396
aF0.09604177246157869
aF0.09303766292873816
aF-0.05709879881886937
aF-0.05179776685269074
aF0.4953354386886897
aF-0.012818504633567374
aF0.018860530241709618
aF0.05398626460731332
aF-0.04940265101267499
aF-0.04731894710140122
aF-0.013013237191008054
aF-0.05795998623231091
aF0.08424703012286253
aF-0.09443200270062727
aF-0.08331861373691499
aF0.19338045314574537
aF-0.01958951599193319
aF0.28863873384134264
aF-0.14003172567265837
aF-0.47467977452307036
aF-0.3019721878413897
aF-0.033908682812350086
aF-0.28096110422871895
aF-0.07201173037426527
aF0.049050996201227805
aF-0.11276421065416549
aF0.07770531990611192
aF0.19635202413190123
aF0.12966309208190313
aF0.0587522682266765
aF0.07358471338472986
aF0.04045303985084789
aF-0.11166787062957187
aF-0.035202564058528556
aF0.07751539943058554
aF0.17025870785381722
aF0.15804044154106744
aF-0.10275753986516109
aF-0.0632189048723249
aF-0.08654226974669516
aF-0.03745563050078153
aF-0.03901436794416984
aF-0.058011346657450426
aF0.16645450786657612
aF0.1817406994176828
aF-0.18400408774366003
aF0.22487323297882766
aF-0.16069902855074641
aF-0.1581279699054573
aF-0.10666402234717894
aF-0.06785792081185725
aF0.16642202214787338
aF-0.02131899885619391
aF0.3338654237360986
aF0.011069114868133063
aF-0.05563157561741379
aF-0.02566950100089654
aF-0.1583011206923304
aF-0.004570508433917892
aF0.4132587933267595
aF0.022269513907517753
aF-0.1512591617427524
aF-0.22902836785401473
aF-0.07939826722662931
aF-0.10222563050421168
aF-0.1516333704603442
aF-0.08960363146883593
aF-0.2356783852764087
aF0.06994753580792007
aF-0.2830908782333548
aF-0.15517402206283626
aF0.16012821872224373
aF-0.21507325460704577
aF0.06236031469997716
aF0.11991618737044704
aF0.05013504015869078
aF0.12802086325894493
aF0.04464382305468674
aF0.1799623553229436
aF-0.3081992105577574
aF-0.03842782054011737
aF0.11041008057945265
aF0.2189442437113162
aF-0.09638883008490708
aa(lp67
F0.08974432801120726
aF-0.15635125515418388
aF0.19066993610532007
aF-0.257926888771855
aF0.11934395715852553
aF-0.03275321583230101
aF0.08577859198053227
aF-0.011661098723078286
aF0.1837663240251131
aF-0.2138951038358542
aF0.0784245740612167
aF0.09394388490571678
aF-0.19815834105541014
aF-0.008267041303353762
aF-0.05113129972205602
aF0.05606797781021361
aF0.10197993707592734
aF0.08110476468852787
aF0.060213114274226966
aF0.16672330724259393
aF0.3554593195136026
aF-0.20944862049155322
aF0.14772528117916586
aF-0.10367537692929064
aF0.01084565810005722
aF-0.12832620074975776
aF0.36907845425048436
aF0.09225997592638548
aF-0.01661297958364478
aF-0.029107919099428982
aF-0.3318079258929615
aF-0.12891970781202228
aF-0.030432948589246066
aF0.09343826123685285
aF0.14401934502113808
aF0.07009638376853529
aF-0.23281159281639793
aF0.19206476976149395
aF0.07323634342052608
aF0.08650304217719247
aF0.058500538887672066
aF-0.056072062224635566
aF0.043061121142002966
aF-0.04885583850372629
aF0.08749356285410816
aF-0.024371617863205873
aF0.11127928436072472
aF0.14183745452189245
aF-0.133829303894657
aF0.19849060499714058
aF-0.17555842676072084
aF0.21847139784705852
aF-0.054902634774280874
aF-0.07461267694497498
aF-0.031956744845582016
aF0.14142529254012098
aF-0.09708598239547687
aF0.05226993889214722
aF-0.02922204644078922
aF-0.2525018958089378
aF0.09438683555461787
aF-0.03782410135777368
aF0.17533116475029623
aF-0.010585090128737578
aF-0.19087215445142355
aF-0.03697738203476612
aF0.1056615245115187
aF0.21977271528297515
aF-0.02315064428355314
aF0.04645734274065706
aF-0.27781531393089925
aF0.028960303278901936
aF0.00767557797534858
aF0.07606068251201419
aF0.1376753952335778
aF0.20264268330151328
aF0.11247241530403458
aF-0.1048282541196747
aF-0.07167189181580941
aF-0.11641785279334882
aF-0.19433086162019345
aF-0.04399751590887076
aF0.17235637260103626
aF0.010751057943460778
aF0.12252247690722227
aF-0.25970765536208934
aF-0.08566761492496595
aF0.13698489359179933
aF0.12803284741156243
aF-0.11813097095199317
aF0.22435443925552226
aF0.011904068059980458
aF0.05073492701632016
aF-0.054456838761785094
aF-0.07422185918961968
aF-0.22444112827210877
aF-0.03126248401785821
aF-0.12675510860835323
aF-0.00918803440877701
aF-0.010505163584493426
aa(lp68
F0.01714820939503688
aF-0.2139165500220085
aF-0.12711264479712853
aF0.028396407363409537
aF0.0716471000376726
aF-0.11430774939282376
aF0.11986396302031319
aF0.13264584830713166
aF0.08465617675014206
aF0.0109246042928354
aF-0.00912570791595485
aF0.030031563064794754
aF-0.29136123137116965
aF-0.010882691267164457
aF0.028278609020273182
aF0.05290053124236639
aF0.14864492653524283
aF0.07865901907657734
aF-0.07952378203030201
aF-0.15862838020160044
aF0.4245480645388104
aF-0.09587823641224479
aF0.11124102649373414
aF0.044845035789983924
aF-0.08522467610773153
aF-0.0959699899659121
aF0.15740541308291953
aF-0.06273400563139919
aF-0.003146394946670586
aF-0.1292638071308359
aF-0.17655603208102985
aF-0.0552672641622217
aF-0.03170119603258013
aF-0.1079870353665072
aF-0.11364262256764766
aF-0.16409144538877196
aF-0.019499629456785413
aF0.06528507524383333
aF0.08280857656696099
aF0.04251474380937539
aF-0.06801096041751757
aF-0.06940354086543783
aF0.028371244072805273
aF0.01829198287885994
aF-0.020845715376642454
aF0.0294891352292407
aF0.091336671426586
aF-0.0015350507682626937
aF-0.06621900079627589
aF-0.09006572216180501
aF-0.06128346007773989
aF0.14148799320744493
aF0.047662924945180665
aF-0.054431518961000826
aF-0.024746103436609487
aF0.018169186658630987
aF-0.08395256388455088
aF0.290652928260076
aF-0.059426061110119215
aF0.0005405400695128785
aF0.06730193998259924
aF-0.0758189267130481
aF-0.034970163829351704
aF0.01884238105313463
aF0.007236493065400509
aF-0.24015139739539385
aF0.09855732486890946
aF0.03330383897339099
aF0.07747169054988795
aF0.12976428724190578
aF-0.0529807768681405
aF0.10083075456750322
aF-0.049314409899355476
aF-0.125932260703648
aF0.01696220876314624
aF0.14583370977604465
aF0.021024872013744245
aF0.05696969061501716
aF0.020012700015504908
aF-0.020836732818842418
aF-0.19459247145639297
aF-0.1190071641560622
aF-0.07589502464797035
aF-0.14010236218974148
aF0.06608920656504087
aF-0.07858560040566999
aF-0.16196289931774566
aF0.05148320053981196
aF-0.05045419861301313
aF0.13278238180554175
aF0.03876951108194977
aF0.14599501008607282
aF-0.06004050533601584
aF0.07408460966152856
aF-0.11735658497182754
aF-0.18950556146569736
aF-0.09947648383047267
aF-0.0692766532046881
aF0.15443868249591544
aF-0.10710319665845831
aaasI11
(lp69
g49
a(lp70
(lp71
F0.02652212621747532
aF0.10284366427784103
aF-0.00843598493654596
aF0.003915163157125853
aF-0.06453515609414985
aF-0.046099709675887834
aF-0.10154440064389104
aF0.055580926032866754
aF0.07120977373583046
aF0.0007973612378164334
aF0.01983315755731404
aF0.01835955373374305
aF-0.02771051867688444
aF0.03588281809343971
aF-0.01690357457137284
aF0.06795609442529738
aF0.135112318957237
aF0.040285540942392534
aF-0.015456098143932333
aF-0.03943726151519883
aF0.11596336568034726
aF0.01275176671423027
aF-0.03651306891672403
aF-0.028773147593769813
aF0.03184275330575748
aF-0.0915373915317082
aF-0.008129636473560992
aF0.03409186854398362
aF0.1201742240907272
aF0.07880040872783642
aF-0.04883220683774812
aF0.053182303781285044
aF0.01228514040100954
aF0.12266893323106824
aF-0.09115493496818415
aF-0.10103747692516007
aF-0.024715010464556524
aF0.025852257278981022
aF-0.008504498128509843
aF-0.02593259305100842
aF-0.03890182226318864
aF-0.035709554144289606
aF0.02412850668442092
aF0.05869945423078526
aF-0.024185209896799002
aF-0.06511209312442097
aF-0.0019220298219505797
aF-0.00953703498725187
aF-0.06894790307313506
aF-0.03933723464414695
aF-0.06884532299625834
aF0.02747564465386827
aF0.005904405843746233
aF-0.058977211377861403
aF0.010184865610046898
aF0.011830059067649237
aF-0.03270261799766724
aF-0.04807634094857863
aF-0.028024278639148668
aF0.004839967430671009
aF0.040165297496497845
aF0.05312606418334274
aF0.021142631448723404
aF-0.03307898258821461
aF-0.08127932263168498
aF0.04521876191814748
aF-0.007110957406542516
aF0.05897366717581596
aF-0.033874852378054064
aF0.10008879218366372
aF0.05134863125897428
aF-0.05823440739159095
aF-0.006803295825409489
aF-0.05329128846858704
aF0.005373702610983148
aF-0.02497065740499248
aF-0.06430827552032314
aF-0.011710282851291838
aF-0.050142800460824276
aF-0.03434144649860348
aF0.03891297159777784
aF-0.00542206885359087
aF0.013988773722481121
aF-0.04929144762640479
aF-0.07591211219475473
aF0.01649466622275336
aF-0.0019970214749080064
aF-0.08432969402414105
aF-0.018419802332263792
aF0.08134274928280187
aF0.0293837871155301
aF0.04178085578553264
aF-0.08350066989686021
aF-0.010105468314095152
aF-0.011917036627720095
aF0.10644076339334092
aF-0.012322600131733228
aF-0.002080014330939219
aF0.05975736114581298
aF0.020983697651189452
aa(lp72
F-0.0004800565629237557
aF0.1376476051995933
aF-0.13885038597675636
aF-0.037900084812549716
aF-0.01761356638047018
aF-0.10454545932579941
aF0.023151388424378472
aF0.005793794526718077
aF0.05199613206871791
aF0.014894096065057136
aF0.03754644207286317
aF0.00567937766271493
aF-0.02535847751840505
aF0.06885959199314626
aF0.005340169109326548
aF-0.04117361970557712
aF0.0866993017140687
aF0.04260005072140991
aF0.0430585920220327
aF0.1642106443979364
aF0.1385590860210715
aF-0.05812208363532213
aF-0.004926774503767949
aF-0.03764818104834107
aF-0.044665072364014256
aF-0.11970619115593935
aF-0.04963134233116723
aF0.044721862715582913
aF0.017348389771617557
aF-0.05280784889038514
aF-0.04062994352508752
aF0.09885967880198235
aF0.030980470058794708
aF-0.016162046758296064
aF-0.12258483714475378
aF-0.2701454008686222
aF0.07690489710423626
aF0.0010488326595426488
aF-0.054359393000713574
aF0.08097428932920449
aF-0.060654012905837815
aF-0.1536216037665426
aF-0.07144318924065413
aF-0.08282463523494048
aF-0.1371147938173968
aF0.06132851282686508
aF0.027252490575472403
aF-0.024572745535963565
aF-0.02294001218024543
aF-0.017099391031884605
aF0.08109924977878323
aF0.03869561742692492
aF0.04876430175087411
aF-0.11282693911911702
aF-0.07082135692905138
aF0.06794729977982578
aF-0.044569871082097895
aF0.1544522108145511
aF-0.027681163176091997
aF0.10028223728015313
aF0.030317835269772043
aF0.009186064634356526
aF-0.1027354640389983
aF-0.030603637079183788
aF-0.10143117651484686
aF-0.09687876130280235
aF0.04379279992449539
aF0.13253034960651153
aF-0.018819179641669848
aF0.022689025476672887
aF-0.03700313733001077
aF-0.05329886775403102
aF-0.012009706388754128
aF-0.029191418987342465
aF0.0473547996394115
aF-0.10889635811115765
aF-0.013323613570709079
aF0.02717953915884613
aF0.0006296172652644156
aF-0.021562126513430077
aF-0.04484345767447401
aF-0.015842476461005152
aF-0.033532693787546385
aF0.03311179272109553
aF-0.0046000931793315205
aF0.07294018132075002
aF0.09311530151017983
aF0.021578990619915403
aF-0.04976462378532833
aF0.12369534719769593
aF-0.06753080256376003
aF-0.08105465167476167
aF-0.08886825001515072
aF0.11322411240778803
aF-0.05491040910953903
aF0.14269754524406156
aF-0.23906079657751775
aF0.011800427032521587
aF0.09490353600825722
aF-0.03859580019291564
aa(lp73
F0.000989503067657857
aF0.07604042718075915
aF-0.1267448754401309
aF0.05525868174873441
aF-0.07544533191717556
aF-0.07112798230125364
aF0.05465657811875724
aF-0.007234811138249211
aF0.08603166535629099
aF0.02222372532377428
aF-0.04443763852323309
aF-0.02420598000167765
aF-0.061546949681084
aF0.08517711874394265
aF0.05797889128920665
aF-0.006722179270491193
aF-0.016585944256874024
aF0.08850514537414188
aF0.07764983977760674
aF0.0835319144559747
aF0.07699893641105982
aF-0.10083323120043038
aF0.02020286708394016
aF0.003237309505189608
aF-0.05225861046936924
aF-0.08706806187411659
aF0.07362732791791932
aF-0.06531927608491502
aF-0.009012512880914755
aF-0.02872894743561802
aF-0.11357255701971905
aF0.06298901621064136
aF-0.07876211390267346
aF0.03398748991015782
aF-0.10322456502593037
aF-0.16486140075169622
aF-0.020001948765399236
aF0.07177710495803313
aF0.010916024086761249
aF0.03793119871659234
aF0.01856585302783845
aF-0.0461006583588538
aF-0.059255958349465364
aF0.0481636157123094
aF-0.02699339793155328
aF-0.04171090401344483
aF-0.043675303549995874
aF-0.026031303639816233
aF-0.051943644075491124
aF0.03217581326958622
aF-0.062492197952414355
aF0.11530365433953614
aF-0.02832755663330952
aF-0.039800512304327115
aF0.013867387014053286
aF-0.08547804618578203
aF-0.06717806421512569
aF0.03846036689864471
aF0.010165437509191593
aF-0.01727217175415716
aF-0.024751523769836352
aF0.03743690152933557
aF-0.06734865798217755
aF-0.04555980567212384
aF-0.02868441444829403
aF-0.07760592526835029
aF0.00935810846243724
aF0.059829687505308815
aF-0.075288096829811
aF0.06947824673918253
aF-0.015818129776470922
aF-0.001940647402533663
aF-0.06653479290681813
aF0.005082985266682885
aF0.062559378884381
aF0.0039420238638114575
aF-0.06047439960835753
aF0.08529240313301119
aF-0.016203759366214862
aF-0.082403920301287
aF0.05207568141020311
aF0.09204987627242647
aF-0.02827180209923601
aF-0.15698638885574545
aF0.017264197751171162
aF0.044640910218334835
aF-0.07278762611150266
aF-0.0721653084222296
aF-0.017687632257744838
aF0.06593580544509199
aF0.06664053189869609
aF-0.03588049901758933
aF-0.03919485231939922
aF-0.07300108601267188
aF0.03633731936885741
aF0.07990650686976128
aF-0.1213950469264245
aF0.015066486765422559
aF0.11904527679153795
aF-0.02063761834724523
aaasI12
(lp74
S'2'
p75
a(lp76
(lp77
F0.1163719529527775
aF0.13490388899634437
aF0.039233697724355615
aF-0.18631068728493672
aF0.026838249662761382
aF-0.05015542788139704
aF0.10785524066100977
aF-0.1500858992315802
aF-0.03556531449868438
aF-0.030057750312411563
aF-0.1695494817747125
aF0.19653397637942416
aF-0.17124535442704808
aF-0.1837549521570232
aF-0.016220539360441072
aF-0.05842427450628344
aF0.029518538326396775
aF-0.12608892891468712
aF0.11804282040692368
aF0.04504317326227074
aF0.14161078181664538
aF0.008983753588120934
aF-0.01632403654163396
aF-0.13165553110599013
aF0.14401948080315355
aF0.05436509013194747
aF0.07233125553962524
aF-0.17277415091379023
aF-0.06020209735953731
aF-0.0054593140288390915
aF-0.13853081760221658
aF0.07682950888104655
aF-0.08995908099076846
aF0.02782821797749711
aF-0.2839951789879738
aF-0.11410951930977385
aF-0.013380274726375247
aF-0.0031488088014969763
aF-0.051300088482026135
aF0.06416119927413588
aF-0.030728832881016716
aF-0.13763158400081854
aF-0.009019611563034683
aF0.03411533695027901
aF-0.0882057192069303
aF-0.03766734172168425
aF-0.14679678709411575
aF0.16050414463838644
aF-0.11720209883504719
aF0.04126941717747944
aF-0.18379862063366859
aF0.3229640491276427
aF0.18529919860984564
aF0.10505928823545682
aF0.04195499161227115
aF-0.1452006703859009
aF0.007485280277218672
aF0.12291006040704773
aF0.026696034568369477
aF0.13221068894438634
aF0.22293495731684823
aF-0.07631231832154911
aF-0.18709052959782735
aF-0.020102199690854874
aF-0.19684281172875495
aF-0.09236435912750925
aF-0.05558698400458881
aF-0.05316169819467746
aF0.049449132153025974
aF0.14109815381330987
aF-0.019544623754458357
aF-0.1283917668096455
aF-0.0073304003607561705
aF0.19182698901532633
aF-0.019219920403308513
aF0.14848141867255138
aF-0.05360360003170295
aF-0.017678572897988017
aF-0.04962841699194074
aF0.04500032193141562
aF0.15763982261996692
aF0.08357225888934311
aF0.05319470789889571
aF-0.07425191018278056
aF-0.056036536342238714
aF-0.05826542382823185
aF-0.0740909223326162
aF0.04263035834642757
aF-0.03494680305653422
aF0.16044883301550308
aF0.27255799740661035
aF0.002149400768965035
aF0.06387847845136922
aF-0.24755580573541722
aF0.10774101964517036
aF0.037091258710896316
aF-0.011022520420981757
aF-0.04282767102928166
aF0.1642605010754947
aF-0.044364108511848764
aa(lp78
F0.03302488454172635
aF0.06187972770718437
aF0.0018931506876900817
aF-0.05256706780806564
aF-0.0071888458359276874
aF-0.005881719719503076
aF0.025040361338071585
aF-0.036419869695122724
aF0.01968465602330082
aF0.003078414589415032
aF-0.11964842291047285
aF0.1325433809819453
aF-0.13096213060514794
aF-0.04522716957986136
aF-0.05926760002098203
aF-0.007731869080360119
aF0.06903524150281955
aF-0.11181036284791442
aF0.0804175596877968
aF0.05351888910396571
aF0.2249655058827927
aF0.0158545138206105
aF0.10701670189505222
aF-0.029390445847550354
aF0.07159803857879182
aF-0.13508807552624053
aF0.1132543708925665
aF-0.047696430486726636
aF-0.07145930676181611
aF-0.05482876573423968
aF-0.1827251604980869
aF0.09770663328679814
aF0.01515549251328606
aF0.08711308995095879
aF-0.15704282583274037
aF-0.08692533029605226
aF0.03195861596992064
aF0.001142892294653271
aF-0.06064130837149308
aF0.08288764721645059
aF-0.07481480065025246
aF-0.11721204232662534
aF0.07342924135567858
aF-0.027640409895634842
aF-0.06186525673061625
aF0.0068533120010483535
aF-0.07284330687745068
aF0.07284430778503671
aF-0.09260508198207615
aF-0.05208466893251605
aF-0.0807054347681237
aF0.1153396985188906
aF0.028794104023442166
aF-0.05157474192471894
aF0.043144331637470675
aF-0.13324532555045
aF0.02217322351202655
aF0.04164266435119738
aF0.05734589231455092
aF0.09779833391541651
aF0.124474434183845
aF0.007824359907140565
aF-0.11837571105927885
aF0.013688787939334892
aF-0.11234688938947389
aF-0.09697076510535083
aF0.07512637278032697
aF-0.08099355848376771
aF0.07487329366974531
aF0.04815126555694949
aF-0.02018786924789868
aF-0.07685207292364642
aF-0.09804781212380267
aF0.03271976528339576
aF0.022903885039100076
aF0.026569477375872452
aF-0.011388996692004761
aF0.016519465032983183
aF-0.04059171071230539
aF0.019055271979373307
aF0.10454579695494635
aF0.07843235069120669
aF0.04498590663054408
aF-0.024292788608250144
aF-0.0148849415503566
aF0.05787607699955229
aF-0.0609084646419493
aF-0.04032289885329163
aF-0.08262968531798867
aF0.13836010266463245
aF0.17840217809446313
aF0.02965790371006364
aF-0.0173032391721366
aF-0.17472920074658235
aF0.041330053864265935
aF-0.008202545965317573
aF-0.03669461171605614
aF0.028152020436324234
aF0.18713288177389437
aF-0.08321493502989848
aaasI13
(lp79
g75
a(lp80
(lp81
F0.14021413789116716
aF0.0912285201609549
aF0.005705403285167615
aF-0.014280456036921574
aF-0.057553007436563525
aF-0.02510351584083209
aF-0.0017191663843826588
aF-0.010363274822213608
aF0.07515893202918042
aF0.007626935695805637
aF-0.17616626612033878
aF0.1669516287218169
aF-0.001875846635917472
aF-0.004649529965040374
aF0.04595490792125046
aF0.12067985058468289
aF0.04983137010095136
aF-0.18001848850081287
aF0.11893079926092588
aF0.08405460182212066
aF0.19062029524087032
aF0.01736361055287
aF0.09239847843453167
aF-0.006099178097485243
aF0.05478564511590919
aF-0.02546071275914953
aF0.061435114414117115
aF-0.06329287856149929
aF-0.022297338001064523
aF0.08004898713314756
aF-0.022996781746858208
aF0.1064581258355619
aF0.05165588241977135
aF-0.02197101754456861
aF-0.034158225171141525
aF-0.08685319844134338
aF-0.030271812779027463
aF0.17851353525520808
aF0.09959675705615771
aF-0.007856214847004175
aF0.017050647951782072
aF-0.00043822835073083384
aF-0.04301058398991225
aF0.006478431651162262
aF-0.14874069268757129
aF-0.04775076625332308
aF-0.07061582121711017
aF0.09226062783194743
aF-0.16138949230985838
aF-0.07972633981556626
aF0.04370857463646567
aF0.022638428059416075
aF0.09923478089260629
aF-0.13869795145473385
aF0.06486690431002454
aF-0.1429828070547008
aF-0.012690657367521476
aF0.08263881078523314
aF0.1644988257997089
aF0.17427395953868494
aF0.2051580435807446
aF0.10156622184683484
aF-0.1515428366219694
aF0.05596204734013508
aF-0.13409550024155165
aF-0.21069366714788687
aF-0.03268764693787878
aF-0.012130656798578627
aF-0.043859200058005005
aF0.11009397283748289
aF-0.009597772134023247
aF-0.04956289349303524
aF-0.174627746121689
aF0.033177127452616736
aF-0.13264266720421106
aF0.14571892490543267
aF0.045757895114308327
aF0.013426985930039487
aF0.005971023557337949
aF0.05669924599516343
aF0.06782663995722538
aF0.035558012719338825
aF-0.05266718098650668
aF0.04186788575822565
aF0.0200435778327477
aF0.19459572160839336
aF-0.08676987192019939
aF0.07676301162106834
aF-0.09216467783202671
aF0.03470061804092504
aF0.08867845045495565
aF0.04257607943464553
aF-0.015990067120944276
aF-0.0520907397673209
aF0.06033298649033166
aF-0.08071985335762763
aF-0.11759223339870863
aF-0.10112953191657979
aF0.2617319856860365
aF0.05191297175317861
aa(lp82
F0.11523639924415191
aF0.1647234380484287
aF-0.05386985334861749
aF-0.08006673465075492
aF0.03551926059731424
aF-0.025079345984233933
aF0.038676886311299064
aF-0.015372527924272406
aF0.11367721750982074
aF-0.052198392869576477
aF-0.11483943541112293
aF0.163569390460302
aF0.042166777469514555
aF-0.0612798627230647
aF0.02364087445794812
aF0.04311999683652826
aF0.022385576328929513
aF-0.13885217281143675
aF0.10021123461789758
aF0.01201199101164011
aF0.15655330159384617
aF0.0996013860355752
aF0.09541290039145538
aF0.017577991368496273
aF0.08421489183063754
aF-0.0066846875475496045
aF-0.01386714723949117
aF-0.13389744391098987
aF0.012349305630415546
aF0.07064475353449767
aF-0.12646119692087363
aF0.10620234379473764
aF0.04332751453063899
aF-0.08730980935345774
aF-0.033786706354569936
aF-0.16637834235321367
aF-0.10837453809567597
aF0.10412740753557129
aF0.07094264046724089
aF-0.03784808922889108
aF-0.016762282243140317
aF0.0038568876713504724
aF-0.1305091044582139
aF-0.12448038962758723
aF-0.05655774789490593
aF-0.12647780270493225
aF-0.18658377805415324
aF-0.051731624199152074
aF-0.05452525150077506
aF0.0505293193391672
aF-0.06636348070409014
aF0.09651954581131446
aF-0.004124282869645355
aF-0.08614868367616348
aF0.13316896166866116
aF-0.0888599259411105
aF0.0733460737130659
aF0.039257537909183675
aF0.08297418117713173
aF0.05543487435373864
aF0.19786779817648179
aF0.1396967897830338
aF-0.034785804904476324
aF0.050384589639318834
aF-0.16250157871772716
aF-0.15492680828661884
aF-0.01948120733180502
aF-0.057305992308839405
aF-0.18913207596479917
aF0.009362578032428695
aF0.022085838829807043
aF0.014555704315627374
aF-0.17010380822409124
aF0.09341952598186408
aF0.002543670520873534
aF0.11286555421837384
aF-0.07538542769786173
aF0.0027481315147245226
aF0.07173478127547563
aF-0.02747405060197103
aF-0.0025931346518430214
aF0.04155753289637171
aF-0.013158422971249873
aF0.035694522340618255
aF-0.053713494452269285
aF0.2177067391092215
aF-0.17476932357527794
aF0.12547744273084943
aF-0.0799065201242454
aF0.05523195807331177
aF0.031050282277137947
aF0.10776386453591942
aF-0.041953589401371755
aF-0.09415073850665559
aF0.029677602335093322
aF-0.048133676727705355
aF-0.0659024017023813
aF-0.1530905293178024
aF0.2179648272494981
aF0.09197384404143807
aaasI14
(lp83
g75
a(lp84
(lp85
F-0.04376370744455789
aF0.15669493050723438
aF-0.010459835145490426
aF-0.18590513889103866
aF0.18646303745460935
aF-0.20798327735968955
aF0.19042000833011222
aF-0.27150876177902594
aF-0.15509991592843902
aF-0.0227285749925797
aF-0.10529648184221821
aF0.2456829691912829
aF-0.11026734159096718
aF-0.10243426605765807
aF-0.012384176173858397
aF-0.0010855188721873603
aF0.10076139707571644
aF-0.1621636176615546
aF0.01740595263673077
aF-0.11965922496258172
aF0.04062283011797778
aF0.08949327749191732
aF0.06792264382806998
aF-0.22078777607577194
aF0.16815935618186106
aF0.006780795458410085
aF0.07793039477327361
aF-0.007929632568960244
aF-0.10999299431279808
aF0.10298182545922689
aF-0.23176614139733542
aF-0.034265709184752594
aF0.039475697973487524
aF0.09889052551802158
aF-0.24027050117860504
aF-0.1687578201531424
aF0.0035327316077260655
aF-0.04298247077835872
aF-0.12484361572819548
aF0.18282717651589173
aF-0.15559116002695728
aF-0.21093729174658096
aF0.11584475306412421
aF-0.010925464667718906
aF-0.046698708668584644
aF-0.13404027313888614
aF-0.17837114983707764
aF0.05111881817600067
aF0.012025569710510923
aF0.20364270892553318
aF-0.10489087282461235
aF0.3062911721117927
aF0.07493512084957667
aF-0.04595280551077256
aF-0.007629223137649628
aF-0.2449062389438873
aF0.043042410123703016
aF0.05026761421081635
aF0.017362497713691905
aF0.07347027304820314
aF0.14814880962587493
aF0.1561567005901964
aF-0.21656785730079578
aF0.02420211777464994
aF-0.1907217336972916
aF-0.08313270693248197
aF-0.07689162363420071
aF-0.15956194616342947
aF0.19483311974247802
aF0.022387003314281777
aF-0.10276403581102933
aF-0.12032095520600723
aF-0.01130750620345257
aF0.13856116848758226
aF-0.06014243132056874
aF0.06861795424590335
aF-0.02326315381944342
aF0.020845349221866392
aF-0.008985634300694345
aF-0.029943363670362513
aF0.22822669329136508
aF-3.057840517950138e-05
aF-0.002486076805349651
aF0.047555143605389975
aF-0.04271650914865448
aF0.06597676721579872
aF-0.034770939838581094
aF-0.022696663539236658
aF-0.07512910231514043
aF0.15146970757970435
aF0.32257840781053804
aF0.10193027722609137
aF0.00945361287984961
aF-0.24842700188499806
aF0.06331308893971513
aF0.026563144424034766
aF-0.06947522279727578
aF-0.0445293591357869
aF0.10492074335652204
aF-0.1591255272892465
aa(lp86
F-0.05564453001786072
aF0.11343114252448783
aF-0.03530232918078102
aF-0.11488293381534509
aF0.019134335740367568
aF0.02679940437681344
aF-0.01628628732918934
aF-0.033719879377182155
aF-0.06745469448523073
aF-0.005708998079267641
aF-0.06609894119765417
aF0.04173293588194932
aF-0.06146275917612188
aF-0.02526794448117785
aF-0.058206050322809
aF-0.04529337936332601
aF0.02705164581074742
aF-0.09145499182333919
aF0.14374198974831057
aF0.13933277195579025
aF0.23487418136258523
aF-0.06317495327061755
aF-0.015176788487347366
aF-0.049933106861215944
aF0.05454182452457651
aF0.03027629088500514
aF0.13122319537698682
aF-0.03601618801247884
aF-0.027953950919909036
aF-0.07443094391648543
aF-0.14264726945756945
aF0.03108089283751287
aF-0.01782464792843266
aF-0.007291322124010521
aF-0.10391040168873746
aF-0.10059317622282236
aF0.10325427678760644
aF0.04894095487687125
aF0.023530926590682878
aF0.052004428048018185
aF-0.13816693653341444
aF-0.05760884916079629
aF0.04355383128848972
aF0.002773045374153077
aF-0.0756885780087774
aF-0.0524795726900175
aF-0.09151636371428964
aF0.07317282022872033
aF-0.09611653033387768
aF-0.010813529817519978
aF-0.10308514221318402
aF0.1446273200029358
aF0.13814075441142049
aF-0.06834543603292051
aF-0.0031998618573121484
aF-0.1877396656436343
aF-0.004301984241785645
aF0.09926194594783558
aF0.15213971230328388
aF0.08063556433057778
aF0.097439306923239
aF0.008190375279550454
aF-0.09856676779439029
aF0.10262272991820166
aF-0.13592552694032548
aF-0.07150288280623325
aF-0.0953738100009707
aF-0.04534134026592795
aF0.08840112211214711
aF0.0701810023680775
aF-0.0032141450103813024
aF-0.0030034598826031655
aF-0.10989729520070407
aF0.08824254238706149
aF-0.018488757557316337
aF-0.0047087726517827675
aF0.09499420889458725
aF0.07629030646965923
aF0.08283971085864356
aF0.029228262121503444
aF0.07415694533863404
aF0.12577939102718777
aF0.03052830781627687
aF-0.1057678062302436
aF-0.10313011734520583
aF-0.04335239334616259
aF-0.05268418075905595
aF-0.027466460324249844
aF-0.014409726892484992
aF0.053448942527784996
aF0.12397152660880709
aF0.03774896859711699
aF-0.06096697938116464
aF-0.17031914206945364
aF0.17098965491895246
aF0.07054918888150623
aF-0.0036123517182809384
aF0.007855854104131517
aF0.022192761003434012
aF-0.009130755710942485
aaasI15
(lp87
g75
a(lp88
(lp89
F0.07832710946104457
aF0.1033444542723656
aF-0.09302201173914876
aF-0.08149081770974403
aF-0.02436814328589032
aF-0.05748417124540747
aF0.031025865773568806
aF-0.0421930955295548
aF0.04720686887855063
aF0.12362418820121389
aF-0.16017777554046309
aF0.05878015229558986
aF-0.11699222472394842
aF-0.03192727273785236
aF-0.11277739636910744
aF0.01689288392160872
aF0.04479727855345154
aF0.10573804619467528
aF-0.1226314639849912
aF-0.033425695968717216
aF0.12157141237921246
aF0.03510836263811795
aF0.05947737637952216
aF-0.11589330125189241
aF0.003401259151023904
aF0.019928243005547665
aF0.1914925645228291
aF0.02614086815991721
aF-0.0754244654587604
aF0.03731107850570804
aF-0.04748152153332487
aF0.1481876049739569
aF-0.12515322083974875
aF0.012330723710420191
aF-0.07901659984633541
aF-0.021460643751332272
aF-0.012303789554623154
aF0.06727575266687483
aF0.07590843134438746
aF-0.013365421539256333
aF-0.042326639826288176
aF-0.0440353842986754
aF0.015536665384358637
aF0.01507669713537672
aF-0.018524767821135928
aF-0.0738591116825211
aF0.10332807625404372
aF-0.031986053049758614
aF0.06253848875485532
aF0.04429637546260902
aF-0.09448035863891105
aF0.10771845608226263
aF-0.09438442556932304
aF0.01724469312862
aF-0.03152674713316103
aF-0.00053734161474663
aF-0.09777405516774941
aF-0.055138317066302706
aF-0.11417258757464319
aF0.14026253405591946
aF0.12851366911129877
aF0.1270121446520537
aF0.06867064261127416
aF0.0674011039304789
aF-0.15755023995592493
aF-0.10722446043055295
aF-0.02715816014623856
aF-0.05097788528570484
aF0.14926915178839095
aF0.12890809726567637
aF-0.021608446842812094
aF-0.0069731469460600414
aF0.004083423254575443
aF0.18171261795172183
aF-0.04298388839666859
aF0.10623244289012561
aF-0.0699856676088989
aF-0.03811041298186554
aF-0.10976388158669376
aF-0.0682039486179206
aF0.18141569090502668
aF0.017288816600084387
aF0.13162756257058
aF-0.057543114056193854
aF-0.07246169911896198
aF-0.05498374980617251
aF-0.07401362384046391
aF-0.061669925596809734
aF0.04679406984912532
aF0.08878880754121657
aF0.09818909571282983
aF-0.014891642192310503
aF-0.03925204904326937
aF0.01447730937765131
aF0.12402457538142794
aF-0.08622477799139253
aF-0.0164104849614907
aF-0.08212671796107114
aF0.07262378094452539
aF0.13314382716417425
aa(lp90
F0.128962393885991
aF0.21601215839728838
aF-0.22820347169963529
aF-0.1601541564358076
aF-0.028147267458550285
aF-0.060583506364648126
aF0.004346336907947723
aF-0.08152752537975319
aF0.1476351611485324
aF0.057942030073967754
aF0.0007317728970074461
aF0.015856926585729403
aF-0.04633174665283574
aF-0.13439678841179498
aF-0.10704551037906893
aF0.012542364525697208
aF-0.004660692111985526
aF0.11096727114390031
aF-0.027826412801109715
aF0.008013711420985503
aF0.21563168853797388
aF-0.05503679049555124
aF0.15030396342040492
aF0.012705106465194002
aF0.08343692768134985
aF0.11356579816421287
aF0.0735160648434774
aF0.026102653516354702
aF0.07503716054189938
aF0.10652437072425226
aF-0.08994273102146833
aF-0.010219094215860482
aF-0.21854662285889645
aF0.12936917753166197
aF-0.20967354482433076
aF-0.13550648531788576
aF0.18006839165960278
aF0.07885861714042307
aF0.12328059037454758
aF-0.0805695072819326
aF0.0013905774580103844
aF-0.04442314594605763
aF0.018313944181377946
aF0.01699300481413105
aF-0.26150686236185133
aF-0.027695243514466113
aF0.00958639104425899
aF0.03692055428445614
aF-0.22013507431201676
aF-0.07678778297061602
aF-0.029832056048043284
aF0.09217019559249759
aF-0.12081058113776952
aF0.07612058512335156
aF-0.04933451847345853
aF0.019236288978614208
aF-0.1459216205137535
aF0.19524708376132616
aF-0.08032329830480585
aF0.3146893863753484
aF0.03749169735123561
aF0.008840892431730099
aF0.005923791843928688
aF-0.19830527530695627
aF-0.3388344659648368
aF-0.2343938193095871
aF-0.015008354931636169
aF-0.2382440143998629
aF0.16434137989914976
aF0.07897086981280545
aF-0.06277739675143304
aF-0.13242133462051797
aF0.026815605122801085
aF0.15328705820661956
aF0.007961268563304395
aF0.11594941297271777
aF-0.07343296015957002
aF0.12824599310267018
aF0.0063183606655527295
aF-0.16728080416507968
aF0.15762242603257304
aF-0.00802489555415811
aF0.1112566563222751
aF0.10866695341662261
aF-0.02360260781501035
aF-0.06716865571687249
aF-0.01755993453894893
aF-0.03856092911160224
aF0.022777557805131986
aF0.01746948960331942
aF-0.06317832356884233
aF0.08123226423281986
aF0.15512503389867072
aF-0.06627345020666578
aF0.03520325815526421
aF-0.12569527328863953
aF-0.027303550905014934
aF-0.12382572514620885
aF0.27185969477217165
aF0.07444388646203637
aaasI16
(lp91
g75
a(lp92
(lp93
F0.09764932530434649
aF0.12517392571601504
aF-0.058022189839936636
aF-0.09864940354316443
aF0.06706356085786609
aF-0.07481358856746387
aF-0.03232505219901974
aF-0.07768934073914195
aF0.05965272211772518
aF-0.04813038282744446
aF-0.1112208492615587
aF0.1291347535909868
aF0.05999063597657234
aF0.052516438764687506
aF0.006139839207242406
aF-0.015275262679608142
aF0.033348015965169994
aF-0.053941843697692046
aF0.09275703249213593
aF-0.13313605001845527
aF0.1345123008169024
aF-0.07817207592731475
aF-0.11922838443596882
aF0.06423647262132107
aF-0.021548162212492773
aF-0.015033615819765466
aF0.08163110793811769
aF-0.06927438882592746
aF0.09049190181732066
aF-0.007509912481516019
aF-0.08115135124262352
aF0.06054316658230565
aF-0.15501990047042194
aF-0.08723000976394171
aF-0.10034134373209806
aF0.15175349014507586
aF-0.004504311045659803
aF-0.007614937475151745
aF0.10339410019527945
aF-0.020437685348945838
aF-0.07205696481363984
aF-0.046439274674576876
aF0.03315986705615468
aF0.029705261256264194
aF-0.17572351974228317
aF0.0699265146451384
aF0.020121241913259424
aF0.07438617158814595
aF-0.025255730259817852
aF0.01598028227405538
aF-0.12418435515994924
aF0.011357960311982766
aF0.0035293428350531655
aF0.05428102638367511
aF-0.03883551103812397
aF-0.09362116159921813
aF-0.03863369657020209
aF0.10300815594836568
aF-0.01415567977460828
aF0.08497885186748097
aF0.15576980292810516
aF0.15321799080431014
aF-0.07137267258652598
aF0.044685373553338806
aF-0.1590932271654068
aF-0.0997560876448817
aF0.020209220054925533
aF0.01011612877995679
aF-0.0594895653935682
aF0.051823630348926474
aF-0.174576759118112
aF-0.07258106191654384
aF-0.019881998566739393
aF-0.09937752793709596
aF-0.004478211956702724
aF-0.036016518056888956
aF-0.040191990157012546
aF0.016450878930856665
aF0.0460740985282851
aF-0.03565971080684179
aF0.031059161176278806
aF0.04299602917875571
aF-0.03657584026348573
aF0.02959369952059331
aF-0.027453792849189508
aF-0.07948858320912733
aF-0.02097325050938557
aF0.15678053152343777
aF-0.05075957415123382
aF0.05888180230712645
aF0.1512478064159938
aF0.055531127737880326
aF-0.03025851482174973
aF-0.0691907741025714
aF0.11450318447402101
aF0.05021906897102649
aF-0.008660122556617888
aF-0.04698159014845368
aF0.08601954809617855
aF-0.014284824534711964
aa(lp94
F0.07048673940798622
aF0.0031705835204482447
aF0.02374459752569047
aF-0.12197151379324667
aF0.05426736298777521
aF0.022942933917262015
aF-0.026092795713277772
aF0.06242685285874501
aF0.061821810168164126
aF-0.03388526159272451
aF-0.17203246408195358
aF-0.05325784382205446
aF-0.013341815238049582
aF0.14947932695188956
aF-0.05316218418213678
aF0.05689106803887374
aF0.0610868220939924
aF-0.07576534135506875
aF0.12348411659321558
aF0.043439191657155235
aF0.11810287799957908
aF-0.058415795764723805
aF-0.04729649466468246
aF0.03992890053689554
aF0.05446077049333078
aF-0.06384888150341396
aF0.03318461599790749
aF-0.002517743837277533
aF0.06870541987354493
aF-0.029698244954515625
aF-0.07160911579968149
aF0.13112154853132604
aF0.03904984672159795
aF0.06341108593810225
aF-0.10128847474965341
aF0.022980877016580865
aF-0.018314322234871536
aF-0.06307572955076123
aF-0.014594634432022122
aF-0.05146865344103502
aF0.04268450295484763
aF-0.11974077351195267
aF-0.02284934506670245
aF0.07024930437662251
aF-0.10500778010439299
aF0.12098601234197763
aF-0.0056842989052419395
aF0.10326878249023523
aF-0.044308920874735785
aF-0.1058951110851697
aF-0.12108954184043112
aF-0.03130588045440605
aF0.021124847218418914
aF0.05415580635294238
aF0.06532476393585007
aF-0.17452766133752765
aF-0.06694642207505253
aF0.006785467248047237
aF-0.02116048959335402
aF0.13727818661114244
aF0.19479908912126107
aF-0.05553509976217244
aF0.012845216362842351
aF0.01823288395990614
aF-0.11987435028334541
aF-0.00973929027995267
aF-0.0020478975878939877
aF-0.05085481660134156
aF0.06220215482282198
aF0.18454505120122172
aF-0.05063794739673135
aF-0.07506748628709274
aF-0.03311190289105712
aF-0.012938716039034678
aF0.020788055685278774
aF0.012410958729354772
aF-0.15909689530405963
aF-0.02397838653601569
aF-0.0566610435932053
aF-0.036816167453450316
aF0.14579039111194692
aF-0.03502623991506532
aF-0.04153316428377947
aF0.010261728097348027
aF-0.04250781151871534
aF-0.07618608876325184
aF-0.1056514350142967
aF0.03280820530318117
aF-0.09916951029675551
aF0.1983122040430247
aF0.1512883883342538
aF-0.04074121552006264
aF-0.02044945545787627
aF-0.002576765677439531
aF0.05628696295571062
aF0.04841348957680103
aF0.0022259808332638206
aF-0.04945546179969218
aF0.10786578219185541
aF0.12093097527177142
aaasI17
(lp95
g75
a(lp96
(lp97
F-0.03444117574746203
aF0.054733789601130706
aF-0.0948461050747913
aF-0.03090777986511295
aF-0.017925908587258926
aF-0.0975470875263317
aF0.025345000963198312
aF-0.05213220269482886
aF0.007449771752572531
aF0.06746597556722564
aF-0.043225163069995735
aF-0.02960393434115395
aF-0.08670275862813429
aF0.039333803615053835
aF0.04105670304640885
aF-0.018432788517474496
aF0.0852933839270983
aF0.04133163645732665
aF0.06855202838001546
aF0.12826717424247155
aF0.1066751737496092
aF0.024709679064505337
aF0.030363358916188694
aF-0.12194949360200373
aF-0.013223610974098337
aF-0.13674846110980013
aF-0.01650807803025292
aF0.006512515623768188
aF-0.027195968072669854
aF-0.06151645037776592
aF-0.10820278657174581
aF0.09032323979872711
aF-0.010664187379510857
aF-0.025260682439112708
aF-0.14008151396045287
aF-0.21870281012826537
aF0.046055372479553075
aF-0.019109284066527465
aF0.015199296976792393
aF0.04377072535308472
aF-0.02385873134538767
aF-0.06811470100788158
aF-0.010962427917054748
aF-0.0044034506033187055
aF-0.12554538425616332
aF0.00834108960346355
aF-0.0010832425700583648
aF-0.049190733444549765
aF0.0009218915730290433
aF0.024709274610642127
aF-0.014361872085388465
aF0.04142946665876091
aF0.055535018440253915
aF-0.10428003870892583
aF0.0011006111827287285
aF0.008306811852348765
aF-0.07445878765873662
aF0.05776165868416863
aF-0.01691391278114741
aF0.03424169640278981
aF0.04219183708719432
aF-0.002631470918630016
aF-0.06369023116228385
aF-0.04761508944057555
aF0.0058826386582802575
aF-0.009012096478782287
aF0.03474352857440532
aF0.08926136255821121
aF0.021969692260223866
aF0.07686884904778682
aF-0.022887651419668757
aF-0.010857041647343092
aF0.00953556187718585
aF-0.05768841969763526
aF0.021868138756010024
aF-0.08830237706717721
aF-0.06937094338164224
aF0.0040785400148930905
aF0.0011352379208240243
aF-0.017764675586896008
aF-0.0027384000052535066
aF0.025891034378292387
aF0.013107454927498735
aF-0.02281736913932749
aF-0.03558101833363142
aF0.037943553924894145
aF-0.0007175885877249186
aF0.013984926091692133
aF-0.0488665819235641
aF0.036083567956740455
aF-0.00032214392919013585
aF-0.04327654991965519
aF-0.043490451829024925
aF0.07280055146249716
aF-0.027410642316462064
aF0.11305897286675341
aF-0.14187651979275825
aF0.036675551360736684
aF0.018462731048875657
aF-0.062046074136445716
aa(lp98
F0.06277764228604471
aF-0.024573438040380813
aF-0.1464268764545208
aF0.07574776796197355
aF0.042283409786849746
aF-0.03070601009950602
aF0.05721465494883955
aF-0.011390632308692084
aF0.13444671798294194
aF0.06021749923571054
aF-0.08066073751904243
aF0.13361637852317215
aF-0.06792021671809013
aF0.0581038173023324
aF0.027294081458711775
aF0.01142244860323236
aF-0.021153200495187152
aF-0.06292828650907269
aF0.053457035413540646
aF0.044017496511959686
aF0.11056610696863543
aF0.013495221092888952
aF-0.03303420581374534
aF0.001266092927036443
aF-0.03728242482404889
aF-0.06892637137765668
aF0.1343837501953019
aF0.011514685670177254
aF0.009286400647963801
aF-0.04987141228217366
aF-0.19010364580412598
aF0.07491727754921107
aF0.009626585114329612
aF-0.0016324378319646715
aF-0.08708307872857346
aF-0.14410962930523896
aF-0.011944162970921497
aF0.21409726580244925
aF0.01102808965553478
aF0.03647281641226853
aF0.05967389591162726
aF0.0361818577186508
aF-0.01630914109584487
aF0.021283789775477967
aF-0.06630455616726734
aF-0.052956209106829986
aF-0.018055014352275148
aF-0.01603275181057343
aF-0.1429941524878692
aF-0.024073274463277932
aF-0.0783675489794699
aF-0.027111891539386746
aF0.09641099595746873
aF-0.07297943627143157
aF-0.029728369606638827
aF-0.08283898669337265
aF-0.10426856523169363
aF0.016835357317268138
aF-0.06490073803760098
aF0.07253309514813437
aF0.07918018632434988
aF-0.051411552373234914
aF-0.10325735408156608
aF-0.12117838092123914
aF-0.14491662533104038
aF0.03895658653159584
aF0.03239803941767804
aF0.019870395383701167
aF-0.093958101020476
aF0.031238758593424277
aF0.029184635539814985
aF-0.03435517149355534
aF0.08316411764617293
aF0.022382869968565144
aF0.025997300606362645
aF0.050381567051989505
aF-0.09471563597355595
aF0.008263870808830604
aF-0.03262542264052664
aF-0.13762557720817628
aF0.10722449905974611
aF0.07965727825722026
aF0.08659667270296188
aF-0.21478107748527886
aF-0.05337121913358441
aF-0.0071922395060103695
aF-0.0424613883934608
aF0.0824402792315233
aF-0.02501044280519246
aF0.09163330873530771
aF0.010033087203580496
aF0.06594505703403834
aF-0.10060626996497649
aF-0.16755875303241802
aF0.03148487107159019
aF0.08893588936704017
aF-0.03314957035292945
aF-0.0997167287112256
aF0.047493286911791936
aF0.057244025165797026
aaasI18
(lp99
S'1'
p100
a(lp101
(lp102
F-0.05356362960551741
aF0.12130927543866804
aF-0.04800152162284166
aF-0.17324304377349475
aF0.05162824876223173
aF0.09761368457610958
aF0.03167487180061801
aF-0.07700472963072828
aF0.09761801179009794
aF0.008836238804837943
aF-0.0042593803813687214
aF0.039976110588438876
aF-0.08223494175347079
aF-0.09147147135772657
aF-0.00534570613831109
aF-0.04412771309781868
aF-0.01892708048482239
aF-0.1207927497420583
aF0.1383970255145135
aF0.10176021322729872
aF0.1658090889800811
aF-0.04682550582458089
aF0.003939593742688285
aF0.03177275431581865
aF0.008508853405245119
aF0.007963030336585618
aF0.14814991277466794
aF-0.05223025833771209
aF-0.03664189718632556
aF-0.05045712312863496
aF-0.17317108990231878
aF0.058607712232901114
aF0.00642281075860426
aF0.03143286777854876
aF-0.15251356122448398
aF-0.12693202182985877
aF0.11177999895415319
aF0.15149875624839915
aF0.04926675223974663
aF0.08172487538596106
aF-0.14635468473970994
aF0.15094033105762333
aF0.0016200584320449965
aF0.058733844052737176
aF-0.01584742165248824
aF-0.07580290637933534
aF-0.15658596687329818
aF0.17079387092977413
aF-0.07687057812865339
aF-0.0017448525400816422
aF-0.09412683663476176
aF0.10594583953625286
aF0.0618054490308392
aF-0.0658190870951125
aF0.018530983290509045
aF-0.21337329986597076
aF0.00045744462154885914
aF0.05152099621183017
aF0.17726878186563547
aF0.13949245556023243
aF0.09164869492631643
aF0.06765037855936251
aF-0.12772759266356606
aF0.05152442893070492
aF-0.2241230258275219
aF-0.002646465026710642
aF-0.050123910790683436
aF-0.025299195832625652
aF0.05028600318363886
aF0.04589186515330952
aF-0.013309075351208826
aF-0.04854891315600798
aF-0.09774883599737266
aF0.10112955245199472
aF-0.08996546025786827
aF0.04669409717617646
aF0.0010831700561156573
aF-0.03712984162110153
aF0.004855211250784943
aF-0.01453073962030052
aF0.07841566224344096
aF0.08881105148252012
aF0.03497155868839196
aF-0.03741240297447471
aF-0.05980583738456695
aF-0.004060259972747794
aF-0.028011670459600114
aF0.03479939905458624
aF-0.07316741445777329
aF0.040540885824895526
aF0.09246198861271265
aF0.010036985585522507
aF-0.08158075058206055
aF-0.1671930948145995
aF0.1581579051327987
aF0.0924895239972443
aF-0.06987197473635771
aF-0.07112538865413005
aF0.06983558949596348
aF-0.03444905420875199
aaasI19
(lp103
g100
a(lp104
(lp105
F0.12604419230521025
aF0.027961793598638762
aF-0.004281228982742635
aF-0.019706188240176226
aF-0.0005275070311652752
aF0.04185297413499113
aF-0.016950535238941283
aF-0.09775241230921561
aF0.01557547114065913
aF-0.10021661646011243
aF-0.15927093182912463
aF0.12079016348930802
aF0.010856464820476919
aF-0.019421258974341816
aF0.018983488312055298
aF0.05260118290515557
aF0.021727255521901932
aF-0.15232849506413224
aF0.07438533664823754
aF0.08993861518534216
aF0.14008664309929553
aF-0.01642057918533844
aF0.05588936674621668
aF0.022892075364998505
aF0.07272021659645518
aF-0.07070248899688737
aF0.011901882619432766
aF-0.013839734208938116
aF0.004502153352678965
aF0.07514721525979705
aF-0.1565015938401246
aF0.0807512929083722
aF-0.030756999932329707
aF-0.06290340366949505
aF-0.08625357198698985
aF-0.11868474519720607
aF-0.04177429560741641
aF0.15119399290956767
aF0.05125834706840483
aF-0.023018697415223187
aF0.004668083291550224
aF-0.005584933804355347
aF0.027907175972414704
aF-0.08098227547263649
aF-0.14173023786809036
aF-0.016181525320051862
aF-0.1294687461246059
aF0.05251519488586103
aF-0.10570684377502594
aF0.04498894858403223
aF0.003185355326714906
aF0.04519124332094078
aF0.08838052709583194
aF-0.11467182881409975
aF0.06134839163078839
aF-0.11904908579938538
aF0.06798744159588166
aF0.10774858201290317
aF0.08086664848663283
aF0.11067939098125316
aF0.1519864835820937
aF0.11486579021657484
aF-0.14163951551191614
aF-0.020360116269568167
aF-0.12153673667192054
aF-0.191688619808837
aF0.06501667587742337
aF-0.006334690394555523
aF-0.022663552232959367
aF0.02540365314011989
aF-0.13360859298069372
aF0.056573503087679
aF-0.15099374195307785
aF0.0817654523672473
aF-0.15003681814267758
aF0.14773794286276642
aF0.041433839269663
aF-0.07331471901571125
aF0.092166022506701
aF-0.042663084449666884
aF0.044063027758946924
aF0.07327123368318297
aF0.03999607379137927
aF-0.05833555119380428
aF-0.021844100789233843
aF0.10566026766712344
aF-0.09932033423458657
aF0.1481182818889814
aF-0.029915122691797125
aF0.012604454260979754
aF0.16549766416897058
aF-0.0008902722261436586
aF-9.842376732092098e-05
aF-0.10380185725852209
aF-0.00953123205753124
aF-0.07075135292858872
aF-0.09461750055244544
aF-0.053461418368467115
aF0.23701419305312374
aF-0.0022825085428713294
aaasI20
(lp106
g100
a(lp107
(lp108
F0.03450645769225054
aF-0.0004648296476980618
aF-0.04658923446238675
aF-0.03368135851686882
aF0.11040469087927396
aF0.00908016962586558
aF-0.031808851741556066
aF-0.0656287320742789
aF0.10498586017423497
aF0.03624216173218553
aF-0.11531258634473222
aF0.059203175940109765
aF-0.03237252939235518
aF0.021995893059732027
aF0.038742085138667295
aF0.06737155024484334
aF-0.004821135364972848
aF-0.16771391985429654
aF0.10017004157092992
aF-0.13598808515501448
aF0.12279582760381971
aF-0.042030570849806305
aF-0.13951595441451295
aF0.0069762524278774085
aF-0.03247873363088395
aF-0.013438908881099866
aF0.060164171242567795
aF-0.13301778390537114
aF0.048498838814134984
aF-0.01663997239738007
aF-0.08834154314423744
aF0.13083737322273353
aF-0.21289710596783537
aF-0.09702196487697899
aF-0.05197487577528207
aF0.07908037901311672
aF0.027930784023293846
aF-0.030923060900880865
aF0.04296653670898276
aF-0.032406101883415764
aF0.003221036790490975
aF-0.048849424073620286
aF0.017970775619511367
aF0.059718874893412564
aF-0.04436381830703828
aF0.038316726954100176
aF0.0756792520440657
aF0.12231004438766542
aF-0.008461949571190107
aF-0.005261585534619593
aF-0.06669006314429832
aF0.06147049241498461
aF-0.03224695485877661
aF0.055735059617018315
aF-0.0364391330962226
aF-0.13452431898734526
aF-0.11274289745154566
aF0.06178263736387999
aF-0.014616809432292726
aF0.051658058354393355
aF0.10703026353300281
aF0.13844871385917903
aF-0.14134809741028553
aF-0.028688532658997828
aF-0.19617453863859283
aF-0.13155167036249876
aF0.013739828423231707
aF0.023064525925738006
aF-0.09971196009086632
aF0.055428127318540146
aF-0.11519270358074407
aF0.055016597516443874
aF0.07425943359377393
aF-0.12356844889955289
aF0.04084578171022061
aF0.011942863349220102
aF-0.04341379944409672
aF0.06106132081457742
aF0.01831942791411752
aF-0.07440956200678109
aF0.08637894254415804
aF-0.016118502460123554
aF-0.055831219087522546
aF-0.04384960772666758
aF0.012029578090552304
aF0.000867125399460541
aF-0.07436973497825188
aF0.05405320179854887
aF-0.116965412373809
aF0.048672160653347916
aF0.13570383590697332
aF0.08286980267584902
aF-0.02263397659618718
aF-0.12720442696797538
aF0.11030248988346215
aF-0.0040806152576079785
aF-0.03776006353415463
aF-0.15397099818547022
aF0.09629802207517778
aF-0.07264288362245867
aaasI21
(lp109
g100
a(lp110
(lp111
F0.10507152168119925
aF0.09616786335697963
aF-0.005324451538837649
aF0.02356776303570718
aF-0.0265622580039509
aF0.014031742792540713
aF0.014163416926517458
aF-0.041194698153039
aF0.011679466146462092
aF-0.11463221840234739
aF-0.15228960488889065
aF0.2156529379429356
aF0.0732723223137278
aF-0.10051036103639124
aF-0.01598409709544337
aF0.07418105895563734
aF-0.009561859058618968
aF-0.21594321387167367
aF0.1849643656179919
aF0.06403358938534402
aF0.11451711288787376
aF0.060474314544164645
aF0.09417743982754988
aF0.010557572239181552
aF0.001442411609395673
aF-0.13628288160645993
aF-0.026981024559295873
aF-0.025175280961515438
aF0.04468955310187559
aF0.12735221820385145
aF-0.22741700134403786
aF0.10353657060817191
aF0.007116337614289628
aF-0.05992648487382873
aF-0.1300172720731481
aF-0.1391471566108354
aF-0.04540190980080879
aF0.0512861521941652
aF0.06430604566660586
aF-0.0782544012326158
aF-0.08141150273058406
aF-0.02546966703504063
aF-0.009825784920793426
aF-0.2438099383039893
aF-0.15809389094710455
aF-0.052673803909937054
aF-0.033788187937030714
aF-0.006331859667452398
aF-0.1512768354265712
aF0.08427637524924876
aF0.07929174849149796
aF0.13031905544223926
aF0.11501281912605837
aF-0.1456573832093245
aF0.09235303799101163
aF-0.058881798536153884
aF0.15289777891631715
aF0.10183929733433442
aF0.10623326024249274
aF0.16397420615281325
aF0.218784981080644
aF0.06350708854945163
aF-0.11995586811314356
aF0.0031002017328259877
aF-0.16078911742622953
aF-0.16928337031568153
aF0.11998490337637134
aF-0.02099516052666886
aF4.7829730025452895e-05
aF0.12157611874920342
aF-0.16760647492992417
aF0.09481519592150603
aF-0.13722571841595704
aF0.0567604370678382
aF-0.1759557844974749
aF0.08231297398119164
aF0.1526744003896338
aF-0.027247134117605543
aF0.11499278666221274
aF-0.02969212062371422
aF-0.036914143936702434
aF0.1375071231417531
aF-0.008334135505182114
aF-0.02988079434007798
aF-0.007014043636871668
aF0.04713446107943198
aF-0.1200154590101359
aF0.13093811521258547
aF0.04540415402241812
aF0.04386071317683349
aF0.07696553658119322
aF-0.05262193902706375
aF0.03981758407678397
aF-0.05659480423844225
aF0.046911629041427615
aF-0.06428509788219376
aF-0.06489725300171882
aF-0.0026444709009989333
aF0.32239510776269265
aF-0.032426799698217754
aaasI22
(lp112
g100
a(lp113
(lp114
F0.022833336931686
aF0.13619162607386742
aF0.07925503811138174
aF-0.17284498914386623
aF0.06514295743312665
aF0.05223579352961841
aF0.011912439707937289
aF-0.032456410667803956
aF0.02277905200380992
aF0.041003627071818725
aF-0.02959833213505339
aF0.07475112373004505
aF-0.05139449948406402
aF-0.10020164613039556
aF0.00825138135252143
aF-0.046054432433952006
aF-0.021825543192152966
aF-0.14655501352959624
aF0.11769783781315972
aF0.07540435443110403
aF0.17580947548010728
aF-0.09009159826925693
aF-0.0625294914365435
aF0.013867163372798716
aF0.020703744656217448
aF0.019646269853975058
aF0.1301631801766758
aF-0.11725898818623208
aF-0.02551386908686741
aF-0.05703427107310911
aF-0.14070267367514386
aF-0.049679399677847826
aF-0.008994438253953806
aF0.07563976462874678
aF-0.10107304389077428
aF0.025227878509422933
aF0.08741972469454633
aF0.0997351044829275
aF0.04737250122838142
aF0.03692531710008033
aF-0.1209711048267549
aF0.07786702338085646
aF-0.03816197257062828
aF0.07663969164761394
aF-0.08907350973790615
aF-0.08045336351424554
aF-0.05985718750903639
aF0.19451562268756925
aF-0.0551376827940918
aF0.023420205475879394
aF-0.14618170769359745
aF0.08535053898711659
aF0.10905208251033094
aF-0.010321073177407361
aF0.038262062977103814
aF-0.1825584369548931
aF0.06061709499395166
aF0.04284784693753494
aF0.15821887463625622
aF0.15457288424056762
aF0.07186350300290177
aF0.008512704793576206
aF-0.0444964067090235
aF0.05927524851761385
aF-0.20326589454481575
aF0.02623285180402137
aF-0.07477010770304739
aF-0.026258813990911012
aF0.08288113260504375
aF0.047039173747324234
aF-0.0798777491471959
aF-0.0009701844382800473
aF-0.07709201967820005
aF0.09565633061893516
aF-0.07057677870282747
aF0.09519806597941295
aF0.04477079218042156
aF0.014035795766142119
aF0.004669310073482356
aF0.11486112828210214
aF0.06798115728292867
aF0.03693250846571813
aF-0.07213761644557479
aF-0.03466133631869156
aF-0.026499290954799973
aF-0.030542889420626752
aF-0.0605092713240142
aF0.004508629740311599
aF-0.02592618535061766
aF-0.00020951015500396777
aF0.06997694460991771
aF-0.020098965330730398
aF-0.01588983375251231
aF-0.19318042576090078
aF0.15667618885565984
aF0.02799817047440126
aF-0.016277549031797598
aF0.019079287345184954
aF0.06902219590431848
aF-0.012270723216334352
aaasI23
(lp115
g100
a(lp116
(lp117
F0.04985042227099315
aF0.05374866285712837
aF-0.17052329463957944
aF-0.012926963862188608
aF-0.041371294199461374
aF-0.027808563253053732
aF-0.0033247950822220818
aF0.001227014399551328
aF0.07879131697648975
aF-0.02743751668462852
aF0.0015204958636357555
aF0.0052292364265668625
aF-0.03802836448222946
aF0.020774996121746506
aF0.010884434394250613
aF-0.054721556606423104
aF0.03767533931808334
aF-0.013265682658797455
aF0.061678881875688416
aF0.02429868853575314
aF0.10651834112381577
aF-0.05998813362731783
aF0.03660913052324395
aF-0.03798162783740022
aF-0.06117785979328569
aF-0.08590080020848898
aF0.052780181358724844
aF-0.004899005594115461
aF-0.021488491089238358
aF-0.04605999457757834
aF-0.10655498104256055
aF0.03305613263940981
aF0.019910768210306604
aF-0.06670202384637773
aF-0.06800116342265443
aF-0.11893231421873074
aF-0.0447600651420132
aF0.0676203357491417
aF-0.006427721744924254
aF0.03019356198195037
aF-0.03601030447761666
aF-0.10634544607710383
aF0.027442519194496282
aF-0.060035242811031383
aF-0.04207985208915871
aF-0.06063413764852128
aF-0.010627901125280163
aF-0.01986467792391275
aF-0.07095550469873046
aF-0.09583605651073998
aF-0.043531854827943986
aF0.04133156656501168
aF0.03745727496824476
aF-0.03422891740898459
aF0.03316484062154521
aF-0.0750229091134822
aF-0.012165972803772311
aF0.060825543443323984
aF-0.010725617023301166
aF0.045523290737535645
aF0.07285175510105374
aF-0.011695206684464433
aF-0.07928410608234378
aF-0.012553838399111072
aF0.0272097868838068
aF0.004409692641616813
aF0.023642537954285083
aF0.05700928970471611
aF-0.0382070533421668
aF0.0012377477083837087
aF0.049545133058713865
aF-0.023476439674670682
aF-0.03454817712415324
aF-0.006378913577868996
aF0.0030720843215973938
aF-0.04819884217111029
aF-0.054118948646965426
aF0.04457223764108266
aF-0.023395343896809168
aF-0.05898954628367658
aF0.03195136014407753
aF0.07345323730688721
aF-0.03457989254609276
aF-0.04050294123742273
aF-0.03998006028782971
aF-0.025335586104564982
aF-0.03919216694780953
aF-0.045107650436132164
aF-0.01583208602329222
aF0.01973922438748573
aF0.05331313723506889
aF0.04642743118181278
aF0.013695466870197721
aF-0.025650970940373323
aF-0.011282609262837294
aF0.018872119702825436
aF-0.09020881279071087
aF-0.03161335856750166
aF0.06203862255346263
aF-0.04374400354796825
aaasI24
(lp118
g100
a(lp119
(lp120
F0.07899513046988804
aF0.03757072353358959
aF0.04688126998096459
aF-0.07302835087689408
aF0.1404396074283215
aF0.0582006800585228
aF-0.12355809328123606
aF-0.07836142361469965
aF0.08849169520755498
aF-0.049600983956587796
aF-0.20460580074557402
aF0.058886985049549895
aF0.041288925256991627
aF0.02010271484245231
aF-0.053429164166868603
aF0.04568770914843649
aF0.074910388998029
aF-0.05771987201608075
aF0.0639366900909109
aF-0.03501236455039682
aF0.20329958178179627
aF-0.11403085415222239
aF-0.20253907148627512
aF0.007038032503773633
aF-0.03520037317178891
aF-0.015544143159566568
aF0.14324118954892504
aF-0.057259548629769404
aF-0.014895079479343938
aF0.11236037449203787
aF-0.07540668302651866
aF0.18886317414544673
aF-0.16169649174360104
aF-0.1163319580204652
aF-0.0800965098298765
aF0.14034972796867562
aF0.07669545797238345
aF-0.06432587632573858
aF0.16858941039943112
aF-0.13103157278101654
aF-0.05569486809695946
aF-0.15247808714130062
aF0.05348537706700165
aF0.09227199418204098
aF-0.20147165798360214
aF0.042117652229743396
aF0.032812724739268224
aF0.12559893028592953
aF-0.013918341430398926
aF-0.035203366879522476
aF-0.06000339133418368
aF0.08429157425315334
aF0.021214084341916045
aF0.09120707239058426
aF0.037823016159379066
aF-0.2036063983091102
aF-0.02748046386504675
aF0.09809989088762605
aF-0.11376906636594046
aF0.10364972485784774
aF0.08498291577694962
aF0.09380747635447233
aF-0.05586676297019174
aF0.01162124535778753
aF-0.19280352668365888
aF-0.1891708361931144
aF-0.004158281411232139
aF0.055164914197202986
aF-0.0556137014620674
aF-0.0502326000853987
aF-0.1594394471172482
aF0.04877330402291943
aF0.09912011888747477
aF-0.04460036095674441
aF0.10116602094302653
aF0.10406324857330168
aF0.03241192643759463
aF0.01838499011056739
aF-0.011977107221674568
aF-0.13243349098248436
aF0.04030104740581037
aF-0.007337582506246687
aF-0.04985610751167172
aF-0.10974899490535939
aF-0.09143392438435557
aF-0.0674571740053147
aF-0.05438144003096337
aF0.08012891027160354
aF-0.12342215480270088
aF0.1245686818858382
aF0.17185405659951714
aF0.06876165512490776
aF-0.0004969455966653983
aF-0.1615594065546619
aF0.05897179559993973
aF0.0922316477513396
aF-0.05603913838445199
aF-0.1089120271861445
aF0.05956292464242977
aF0.012403393379570159
aaasI25
(lp121
g100
a(lp122
(lp123
F0.03650934234944466
aF0.023805273412094263
aF0.06365296287226575
aF-0.09074596394508115
aF0.036999771747201676
aF0.05404882141634881
aF-0.0665723693821273
aF0.07855611754903516
aF0.010884563942303091
aF0.026633955445453106
aF-0.09642815235741771
aF-0.06307164146824287
aF0.034372269175040875
aF0.13958010316292455
aF-0.03215186997587323
aF0.03542331437123903
aF0.031965477979260935
aF-0.04311044581890248
aF0.05750340682752709
aF0.07383044195937667
aF0.16101595743789102
aF-0.1579864159713033
aF0.014282708824573232
aF0.056468062417611965
aF0.07609845535464298
aF-0.04562335892310954
aF-0.01256324021719797
aF0.06255578832762854
aF-0.007291239202377999
aF-0.02626306340021717
aF-0.08209797251484155
aF0.08554192435392877
aF0.08875659971291384
aF0.057499129235825175
aF-0.12215572710859768
aF-0.003949768734214441
aF0.06279023458889217
aF0.016970089072342487
aF-0.01652062458601553
aF-0.09309173701093966
aF-0.08726207897407784
aF-0.07977461626670523
aF-0.04454612673264097
aF0.0556596393900601
aF-0.04660307011880782
aF0.08930878838748699
aF0.036754912442800776
aF0.12991063942082842
aF-0.07955893617325069
aF-0.0736474583371823
aF-0.059873407456586814
aF0.04638708337877048
aF0.13265042686224704
aF0.10100883036326429
aF-0.017831456365766996
aF-0.11588448804845891
aF-0.07226953068904507
aF-0.06753855860172428
aF0.05163025739517332
aF0.0906263290684496
aF0.09636453163513208
aF-0.046054086372087494
aF0.049531017638102914
aF0.06210078096679427
aF-0.14833504659264898
aF0.07106486461714295
aF-0.04608943904723309
aF-0.0429091302858301
aF0.0723105690465737
aF0.16751075445575858
aF-0.06949402739051908
aF-0.06617615081700541
aF-0.013055733003148034
aF0.07680958313922873
aF0.020526121483116777
aF0.06683898561072915
aF-0.15331366947787373
aF0.022271261296576438
aF-0.10549327703461148
aF0.02270372568607421
aF0.04908898605582398
aF-0.03044995011138111
aF-5.698451933831817e-05
aF-0.06851193857049175
aF-0.10699662079104359
aF-0.13020099388656994
aF-0.08043709736984171
aF-0.008013198201578082
aF-0.07157290090370388
aF0.1274526410393009
aF0.06327686735423049
aF-0.03577533958176766
aF0.010166457572548209
aF0.07460328104206097
aF0.04052458856958301
aF-0.025783882726181675
aF-0.00482326576241686
aF0.06213645894798404
aF0.10908597919550148
aF0.09780963528899586
aaasI26
(lp124
g100
a(lp125
(lp126
F0.029900792774431202
aF0.048297727673404456
aF-0.17481654820918358
aF-0.0010930315035547755
aF-0.03538925699725287
aF-0.03014095109979744
aF0.0027291999526505763
aF0.0057055756796006414
aF0.07776195469296078
aF-0.016377332220187252
aF-0.007872621082194015
aF0.007115642263463318
aF-0.027623515278165332
aF0.029861151280824894
aF0.005273848365642287
aF-0.04267157541951088
aF0.033751616236353935
aF-0.009602057951810655
aF0.05983984627646849
aF0.025603384526449686
aF0.10952177785836413
aF-0.06562325527106297
aF0.03136362631639145
aF-0.02303506331242056
aF-0.05055151453728275
aF-0.07732451462615428
aF0.04513431293351034
aF-0.004455961609708816
aF-0.02271692409411421
aF-0.05756520151980038
aF-0.10521450033279342
aF0.03687747080408288
aF0.0004439879084704315
aF-0.06847290999218812
aF-0.0724992900721923
aF-0.11953725668992189
aF-0.025488731108593305
aF0.05905085994665283
aF-0.000562733276627498
aF0.024937368966280616
aF-0.048592832886662767
aF-0.10450360397573262
aF0.029583058020710266
aF-0.05150417435555066
aF-0.03989910624575387
aF-0.060387965358349546
aF-0.01355008643241346
aF-0.02762983015572083
aF-0.06075769514819016
aF-0.10117174227678816
aF-0.03507428293424479
aF0.0338621071224971
aF0.020326502914056258
aF-0.030974409600343557
aF0.028464388087728904
aF-0.05868521992648599
aF-0.011619091323975154
aF0.06200151086438402
aF0.0013136728373599098
aF0.04234586050137441
aF0.07057044624809712
aF0.003257164836089935
aF-0.08477268645724619
aF-0.006000948611194543
aF0.03451770990377567
aF0.007058170197466657
aF0.014912954440384315
aF0.06493306614686076
aF-0.03217243973780856
aF0.003931907676371184
aF0.04264769497965851
aF-0.03145024480969681
aF-0.04004151206678502
aF-0.0016132919649438368
aF0.005490096618893438
aF-0.05827704020601519
aF-0.055266816265989595
aF0.04362270233604682
aF-0.012160043582388471
aF-0.06590645926798971
aF0.03727159250504159
aF0.07686110430923801
aF-0.03789663457307951
aF-0.05147273145707217
aF-0.04041537470045633
aF-0.018473155469296974
aF-0.038665675402311944
aF-0.05286574544787251
aF-0.01912393900800096
aF0.021939368468444895
aF0.05581724648105418
aF0.03629702613334028
aF0.016033151635630148
aF-0.022536844129748317
aF0.0013137506157545609
aF0.02831455418478481
aF-0.08861662486420743
aF-0.031016062636639946
aF0.06935612422904436
aF-0.04155399367663714
aaas.